(lp0
(S'CSTE\n'
p1
F0.0
tp2
a(S'AGIIL\n'
p3
F0.0
tp4
a(S'AXJS\n'
p5
F0.0
tp6
a(S'MNGL\n'
p7
F0.0
tp8
a(S'WEBK\n'
p9
F0.0
tp10
a(S'MVISW\n'
p11
F0.0
tp12
a(S'CLNT\n'
p13
F0.0
tp14
a(S'CRMBU\n'
p15
F0.0
tp16
a(S'EVAL\n'
p17
F0.0
tp18
a(S'CYTXW\n'
p19
F0.0
tp20
a(S'TROVU\n'
p21
F0.0
tp22
a(S'FANG\n'
p23
F0.0
tp24
a(S'INXB\n'
p25
F0.0
tp26
a(S'CNSI\n'
p27
F0.0
tp28
a(S'TTS\n'
p29
F0.0
tp30
a(S'CGEIU\n'
p31
F0.0
tp32
a(S'ZNWAW\n'
p33
F0.0
tp34
a(S'ICPT\n'
p35
F0.0
tp36
a(S'DCIN\n'
p37
F0.0
tp38
a(S'SOCL\n'
p39
F0.0
tp40
a(S'LVNTB\n'
p41
F0.0
tp42
a(S'PACQ\n'
p43
F0.0
tp44
a(S'TSRO\n'
p45
F0.0
tp46
a(S'WTFCW\n'
p47
F0.0
tp48
a(S'CERE\n'
p49
F0.0
tp50
a(S'MACK\n'
p51
F0.0
tp52
a(S'PFMT\n'
p53
F0.0
tp54
a(S'CEMI\n'
p55
F0.0
tp56
a(S'VSTM\n'
p57
F0.0
tp58
a(S'GNMA\n'
p59
F0.0
tp60
a(S'CRFN\n'
p61
F0.0
tp62
a(S'SBNYW\n'
p63
F0.0
tp64
a(S'MRCC\n'
p65
F0.0
tp66
a(S'SGYPW\n'
p67
F0.0
tp68
a(S'WAFDW\n'
p69
F0.0
tp70
a(S'QKLS\n'
p71
F0.0
tp72
a(S'OGXI\n'
p73
F0.0
tp74
a(S'IRDMU\n'
p75
F0.0
tp76
a(S'USATZ\n'
p77
F0.0
tp78
a(S'ELOQ\n'
p79
F0.0
tp80
a(S'MFRM\n'
p81
F0.0
tp82
a(S'SUPN\n'
p83
F0.0
tp84
a(S'SPLK\n'
p85
F0.0
tp86
a(S'FSBW\n'
p87
F0.0
tp88
a(S'EMEY\n'
p89
F0.0
tp90
a(S'SANWW\n'
p91
F0.0
tp92
a(S'ROIQU\n'
p93
F0.0
tp94
a(S'CNDO\n'
p95
F0.0
tp96
a(S'ENVI\n'
p97
F0.0
tp98
a(S'EEML\n'
p99
F0.0
tp100
a(S'SYNC\n'
p101
F0.0
tp102
a(S'TCBIW\n'
p103
F0.0
tp104
a(S'HLSS\n'
p105
F0.0
tp106
a(S'KIPO\n'
p107
F0.0
tp108
a(S'JFBI\n'
p109
F0.0
tp110
a(S'NTK\n'
p111
F0.0
tp112
a(S'IMI\n'
p113
F0.0
tp114
a(S'GFNCL\n'
p115
F0.0
tp116
a(S'IRDMW\n'
p117
F0.0
tp118
a(S'TCPC\n'
p119
F0.0
tp120
a(S'BGSC\n'
p121
F0.0
tp122
a(S'AQUUU\n'
p123
F0.0
tp124
a(S'CHUY\n'
p125
F0.0
tp126
a(S'HTBI\n'
p127
F0.0
tp128
a(S'CMGE\n'
p129
F0.0
tp130
a(S'ROIQW\n'
p131
F0.0
tp132
a(S'CBMXW\n'
p133
F0.0
tp134
a(S'BKEPP\n'
p135
F0.0
tp136
a(S'USMD\n'
p137
F0.0
tp138
a(S'EAGL\n'
p139
F0.0
tp140
a(S'VTIP\n'
p141
F0.0
tp142
a(S'MNGLW\n'
p143
F0.0
tp144
a(S'KYTH\n'
p145
F0.0
tp146
a(S'FB\n'
p147
F0.0
tp148
a(S'CUI\n'
p149
F0.0
tp150
a(S'BCOV\n'
p151
F0.0
tp152
a(S'APWC\n'
p153
F0.0
tp154
a(S'ADNC\n'
p155
F0.0
tp156
a(S'RDIB\n'
p157
F0.0
tp158
a(S'ENPH\n'
p159
F0.0
tp160
a(S'EMDI\n'
p161
F0.0
tp162
a(S'EEMA\n'
p163
F0.0
tp164
a(S'GOODN\n'
p165
F0.0
tp166
a(S'ANGI\n'
p167
F0.0
tp168
a(S'EOPN\n'
p169
F0.0
tp170
a(S'CCCLU\n'
p171
F0.0
tp172
a(S'BPFHW\n'
p173
F0.0
tp174
a(S'GAINP\n'
p175
F0.0
tp176
a(S'HCIIP\n'
p177
F0.0
tp178
a(S'JACQU\n'
p179
F0.0
tp180
a(S'ANDA\n'
p181
F0.0
tp182
a(S'CZR\n'
p183
F0.0
tp184
a(S'PRSS\n'
p185
F0.0
tp186
a(S'FFBCW\n'
p187
F0.0
tp188
a(S'VLYWW\n'
p189
F0.0
tp190
a(S'NVDQ\n'
p191
F0.0
tp192
a(S'ROICW\n'
p193
F0.0
tp194
a(S'GALTU\n'
p195
F0.0
tp196
a(S'TRIP\n'
p197
F0.0
tp198
a(S'SSH\n'
p199
F0.0
tp200
a(S'PBMD\n'
p201
F0.0
tp202
a(S'CBF\n'
p203
F0.0
tp204
a(S'MTSI\n'
p205
F0.0
tp206
a(S'EGRW\n'
p207
F0.0
tp208
a(S'INXBU\n'
p209
F0.0
tp210
a(S'DFRG\n'
p211
F0.0
tp212
a(S'KYAK\n'
p213
F0.0
tp214
a(S'PSMI\n'
p215
F0.0
tp216
a(S'RGLS\n'
p217
F0.0
tp218
a(S'MDIV\n'
p219
F0.0
tp220
a(S'LFVN\n'
p221
F0.0
tp222
a(S'EAC\n'
p223
F0.0
tp224
a(S'AGNCP\n'
p225
F0.0
tp226
a(S'IRG\n'
p227
F0.0
tp228
a(S'BANCL\n'
p229
F0.0
tp230
a(S'MCBK\n'
p231
F0.0
tp232
a(S'BLMN\n'
p233
F0.0
tp234
a(S'CLVS\n'
p235
F0.0
tp236
a(S'ROIQ\n'
p237
F0.0
tp238
a(S'PFPT\n'
p239
F0.0
tp240
a(S'GLADP\n'
p241
F0.0
tp242
a(S'FRGI\n'
p243
F0.0
tp244
a(S'KRFT\n'
p245
F0.0
tp246
a(S'HBK\n'
p247
F0.0
tp248
a(S'LTBR\n'
p249
F0.0
tp250
a(S'UBPS\n'
p251
F0.0
tp252
a(S'TDIV\n'
p253
F0.0
tp254
a(S'HMST\n'
p255
F0.0
tp256
a(S'CEMP\n'
p257
F0.0
tp258
a(S'LNCO\n'
p259
F0.0
tp260
a(S'LVNTA\n'
p261
F0.0
tp262
a(S'DRTX\n'
p263
F0.0
tp264
a(S'ROICU\n'
p265
F0.0
tp266
a(S'PACQW\n'
p267
F0.0
tp268
a(S'GALTW\n'
p269
F0.0
tp270
a(S'SHOS\n'
p271
F0.0
tp272
a(S'CHXF\n'
p273
F0.0
tp274
a(S'CELGZ\n'
p275
F0.0
tp276
a(S'ZNWAZ\n'
p277
F0.0
tp278
a(S'ANDAU\n'
p279
F0.0
tp280
a(S'ARCT\n'
p281
F0.0
tp282
a(S'AMBA\n'
p283
F0.0
tp284
a(S'EMCB\n'
p285
F0.0
tp286
a(S'EEME\n'
p287
F0.0
tp288
a(S'ESCA\n'
p289
F0.0
tp290
a(S'GFNCZ\n'
p291
F0.0
tp292
a(S'EVAC\n'
p293
F0.0
tp294
a(S'PSBH\n'
p295
F0.0
tp296
a(S'QLYS\n'
p297
F0.0
tp298
a(S'SGYPU\n'
p299
F0.0
tp300
a(S'JIVE\n'
p301
F0.0
tp302
a(S'AMAG\n'
p303
F0.0
tp304
a(S'PACQU\n'
p305
F0.0
tp306
a(S'OXBT\n'
p307
F0.0
tp308
a(S'MEILU\n'
p309
F0.0
tp310
a(S'HPTX\n'
p311
F0.0
tp312
a(S'MEMP\n'
p313
F0.0
tp314
a(S'REGI\n'
p315
F0.0
tp316
a(S'CCXI\n'
p317
F0.0
tp318
a(S'CRMBW\n'
p319
F0.0
tp320
a(S'AAIT\n'
p321
F0.0
tp322
a(S'TCBIL\n'
p323
F0.0
tp324
a(S'EXA\n'
p325
F0.0
tp326
a(S'CLIR\n'
p327
F0.0
tp328
a(S'ZIONW\n'
p329
F0.0
tp330
a(S'ASBCW\n'
p331
F0.0
tp332
a(S'TAX\n'
p333
F0.0
tp334
a(S'ZNGA\n'
p335
F0.0
tp336
a(S'CREG\n'
p337
F0.0
tp338
a(S'OPXAW\n'
p339
F0.0
tp340
a(S'CGEI\n'
p341
F0.0
tp342
a(S'CPAH\n'
p343
F0.0
tp344
a(S'BV\n'
p345
F0.0
tp346
a(S'FIVE\n'
p347
F0.0
tp348
a(S'HPAC\n'
p349
F0.0
tp350
a(S'OSH\n'
p351
F0.0
tp352
a(S'CG\n'
p353
F0.0
tp354
a(S'BGSCU\n'
p355
F0.0
tp356
a(S'SANWZ\n'
p357
F0.0
tp358
a(S'WSFSL\n'
p359
F0.0
tp360
a(S'EAGLW\n'
p361
F0.0
tp362
a(S'SCGQ\n'
p363
F0.0
tp364
a(S'MCEP\n'
p365
F0.0
tp366
a(S'LOCM\n'
p367
F0.009999999999999787
tp368
a(S'CCBG\n'
p369
F0.009999999999999787
tp370
a(S'MAXY\n'
p371
F0.009999999999999787
tp372
a(S'PTSI\n'
p373
F0.009999999999999787
tp374
a(S'STEM\n'
p375
F0.010000000000000009
tp376
a(S'HAUP\n'
p377
F0.010000000000000009
tp378
a(S'NAVR\n'
p379
F0.010000000000000009
tp380
a(S'CYBE\n'
p381
F0.010000000000000675
tp382
a(S'ISSC\n'
p383
F0.010000000000000675
tp384
a(S'MNGLU\n'
p385
F0.019999999999999574
tp386
a(S'QTEC\n'
p387
F0.019999999999999574
tp388
a(S'SKYY\n'
p389
F0.019999999999999574
tp390
a(S'AGYS\n'
p391
F0.019999999999999574
tp392
a(S'SIGA\n'
p393
F0.020000000000000018
tp394
a(S'GAME\n'
p395
F0.020000000000000018
tp396
a(S'PDEX\n'
p397
F0.020000000000000018
tp398
a(S'LOAN\n'
p399
F0.020000000000000018
tp400
a(S'CLRO\n'
p401
F0.020000000000000462
tp402
a(S'WOOF\n'
p403
F0.020000000000003126
tp404
a(S'ORRF\n'
p405
F0.02999999999999936
tp406
a(S'RLOG\n'
p407
F0.02999999999999936
tp408
a(S'VITC\n'
p409
F0.02999999999999936
tp410
a(S'HALL\n'
p411
F0.02999999999999936
tp412
a(S'BWOWW\n'
p413
F0.03
tp414
a(S'BIDZ\n'
p415
F0.030000000000000027
tp416
a(S'FCEL\n'
p417
F0.030000000000000027
tp418
a(S'NAII\n'
p419
F0.03000000000000025
tp420
a(S'AVNR\n'
p421
F0.03000000000000025
tp422
a(S'ARTW\n'
p423
F0.03000000000000025
tp424
a(S'NWBI\n'
p425
F0.030000000000001137
tp426
a(S'ADRE\n'
p427
F0.030000000000001137
tp428
a(S'BANFP\n'
p429
F0.03999999999999915
tp430
a(S'APEI\n'
p431
F0.03999999999999915
tp432
a(S'FORTY\n'
p433
F0.03999999999999915
tp434
a(S'PRCP\n'
p435
F0.040000000000000036
tp436
a(S'III\n'
p437
F0.040000000000000036
tp438
a(S'SMSI\n'
p439
F0.040000000000000036
tp440
a(S'KOSS\n'
p441
F0.04999999999999982
tp442
a(S'ANCI\n'
p443
F0.050000000000000044
tp444
a(S'GRVY\n'
p445
F0.050000000000000044
tp446
a(S'IPCI\n'
p447
F0.050000000000000266
tp448
a(S'ZOLT\n'
p449
F0.05000000000000071
tp450
a(S'WVFC\n'
p451
F0.05000000000000071
tp452
a(S'PBCT\n'
p453
F0.05000000000000071
tp454
a(S'NBTB\n'
p455
F0.05999999999999872
tp456
a(S'NABI\n'
p457
F0.06000000000000005
tp458
a(S'OMEX\n'
p459
F0.06000000000000005
tp460
a(S'ATNI\n'
p461
F0.060000000000002274
tp462
a(S'AOSL\n'
p463
F0.06999999999999851
tp464
a(S'TECUB\n'
p465
F0.0699999999999994
tp466
a(S'POWR\n'
p467
F0.0699999999999994
tp468
a(S'CLWT\n'
p469
F0.06999999999999984
tp470
a(S'SDBT\n'
p471
F0.06999999999999984
tp472
a(S'RELV\n'
p473
F0.07000000000000006
tp474
a(S'BASI\n'
p475
F0.07000000000000006
tp476
a(S'MEIP\n'
p477
F0.07000000000000006
tp478
a(S'CPST\n'
p479
F0.07000000000000006
tp480
a(S'SBCF\n'
p481
F0.07000000000000006
tp482
a(S'INTT\n'
p483
F0.07000000000000028
tp484
a(S'CSCO\n'
p485
F0.07000000000000028
tp486
a(S'OSUR\n'
p487
F0.07000000000000028
tp488
a(S'MNST\n'
p489
F0.07000000000000028
tp490
a(S'CNTY\n'
p491
F0.07000000000000028
tp492
a(S'COLB\n'
p493
F0.07000000000000028
tp494
a(S'ELNK\n'
p495
F0.07000000000000028
tp496
a(S'HNSN\n'
p497
F0.07999999999999963
tp498
a(S'IIN\n'
p499
F0.08000000000000007
tp500
a(S'HTCH\n'
p501
F0.08000000000000007
tp502
a(S'AEY\n'
p503
F0.08000000000000007
tp504
a(S'TAIT\n'
p505
F0.08000000000000007
tp506
a(S'NVSL\n'
p507
F0.08000000000000007
tp508
a(S'FEIM\n'
p509
F0.08000000000000007
tp510
a(S'ORCC\n'
p511
F0.08000000000000007
tp512
a(S'CAVM\n'
p513
F0.0899999999999963
tp514
a(S'HCKT\n'
p515
F0.08999999999999986
tp516
a(S'AMSWA\n'
p517
F0.08999999999999986
tp518
a(S'LPTN\n'
p519
F0.08999999999999986
tp520
a(S'HUBG\n'
p521
F0.08999999999999986
tp522
a(S'DOVR\n'
p523
F0.0900000000000003
tp524
a(S'SHBI\n'
p525
F0.09000000000000075
tp526
a(S'NSEC\n'
p527
F0.09999999999999964
tp528
a(S'HYGS\n'
p529
F0.09999999999999964
tp530
a(S'PMNA\n'
p531
F0.09999999999999964
tp532
a(S'VRTA\n'
p533
F0.09999999999999987
tp534
a(S'PTSX\n'
p535
F0.09999999999999998
tp536
a(S'GTIM\n'
p537
F0.10000000000000009
tp538
a(S'DLIA\n'
p539
F0.10000000000000009
tp540
a(S'IMMU\n'
p541
F0.10000000000000009
tp542
a(S'PRLS\n'
p543
F0.10000000000000009
tp544
a(S'RMKR\n'
p545
F0.10000000000000009
tp546
a(S'WSTL\n'
p547
F0.10000000000000009
tp548
a(S'BVSN\n'
p549
F0.10000000000000142
tp550
a(S'TNGO\n'
p551
F0.10999999999999943
tp552
a(S'HAST\n'
p553
F0.10999999999999988
tp554
a(S'CASM\n'
p555
F0.10999999999999988
tp556
a(S'IRDMZ\n'
p557
F0.1100000000000001
tp558
a(S'NWPX\n'
p559
F0.11999999999999744
tp560
a(S'ECYT\n'
p561
F0.11999999999999922
tp562
a(S'COSI\n'
p563
F0.12
tp564
a(S'GSAT\n'
p565
F0.12
tp566
a(S'DRAD\n'
p567
F0.1200000000000001
tp568
a(S'CAAS\n'
p569
F0.1200000000000001
tp570
a(S'CACB\n'
p571
F0.1200000000000001
tp572
a(S'ATMI\n'
p573
F0.120000000000001
tp574
a(S'YONG\n'
p575
F0.1299999999999999
tp576
a(S'ACRX\n'
p577
F0.1299999999999999
tp578
a(S'COWN\n'
p579
F0.1299999999999999
tp580
a(S'NFEC\n'
p581
F0.13
tp582
a(S'TST\n'
p583
F0.13000000000000012
tp584
a(S'BUSE\n'
p585
F0.13999999999999968
tp586
a(S'CCIH\n'
p587
F0.13999999999999968
tp588
a(S'BLRX\n'
p589
F0.13999999999999968
tp590
a(S'AEHR\n'
p591
F0.14
tp592
a(S'ASTI\n'
p593
F0.14
tp594
a(S'BNSO\n'
p595
F0.14000000000000012
tp596
a(S'SGC\n'
p597
F0.14000000000000057
tp598
a(S'RNWK\n'
p599
F0.14000000000000057
tp600
a(S'NBIX\n'
p601
F0.14999999999999947
tp602
a(S'HBIO\n'
p603
F0.14999999999999947
tp604
a(S'EDAP\n'
p605
F0.1499999999999999
tp606
a(S'RDNT\n'
p607
F0.15000000000000036
tp608
a(S'EROC\n'
p609
F0.15000000000000036
tp610
a(S'IDTI\n'
p611
F0.15000000000000036
tp612
a(S'GCFB\n'
p613
F0.1599999999999997
tp614
a(S'CRWN\n'
p615
F0.15999999999999992
tp616
a(S'SUTR\n'
p617
F0.16000000000000014
tp618
a(S'CLNE\n'
p619
F0.16000000000000014
tp620
a(S'SYPR\n'
p621
F0.16999999999999993
tp622
a(S'BCDS\n'
p623
F0.16999999999999993
tp624
a(S'WTSLA\n'
p625
F0.16999999999999993
tp626
a(S'RPTP\n'
p627
F0.16999999999999993
tp628
a(S'INOD\n'
p629
F0.16999999999999993
tp630
a(S'MHLD\n'
p631
F0.16999999999999993
tp632
a(S'ISNS\n'
p633
F0.16999999999999993
tp634
a(S'PTEK\n'
p635
F0.17000000000000004
tp636
a(S'ESMC\n'
p637
F0.17000000000000004
tp638
a(S'DHRM\n'
p639
F0.17000000000000015
tp640
a(S'MNOV\n'
p641
F0.17000000000000037
tp642
a(S'STSI\n'
p643
F0.17000000000000037
tp644
a(S'NICE\n'
p645
F0.1700000000000017
tp646
a(S'GTXI\n'
p647
F0.17999999999999972
tp648
a(S'HOLL\n'
p649
F0.17999999999999994
tp650
a(S'SIEB\n'
p651
F0.18000000000000016
tp652
a(S'USAT\n'
p653
F0.18000000000000016
tp654
a(S'MITL\n'
p655
F0.18000000000000016
tp656
a(S'KTOS\n'
p657
F0.1899999999999995
tp658
a(S'CHFN\n'
p659
F0.1899999999999995
tp660
a(S'CPIX\n'
p661
F0.1899999999999995
tp662
a(S'FBNC\n'
p663
F0.1899999999999995
tp664
a(S'OSBC\n'
p665
F0.18999999999999995
tp666
a(S'BIOD\n'
p667
F0.18999999999999995
tp668
a(S'PTNT\n'
p669
F0.18999999999999995
tp670
a(S'CNET\n'
p671
F0.18999999999999995
tp672
a(S'CERS\n'
p673
F0.18999999999999995
tp674
a(S'UNTY\n'
p675
F0.1900000000000004
tp676
a(S'ICAD\n'
p677
F0.1900000000000004
tp678
a(S'IRWD\n'
p679
F0.19000000000000128
tp680
a(S'VGSH\n'
p681
F0.19999999999999574
tp682
a(S'BWINA\n'
p683
F0.1999999999999993
tp684
a(S'RGCO\n'
p685
F0.1999999999999993
tp686
a(S'MPET\n'
p687
F0.20000000000000007
tp688
a(S'TECUA\n'
p689
F0.20000000000000018
tp690
a(S'ROMA\n'
p691
F0.20999999999999908
tp692
a(S'ACPW\n'
p693
F0.20999999999999996
tp694
a(S'CIDM\n'
p695
F0.20999999999999996
tp696
a(S'ERII\n'
p697
F0.20999999999999996
tp698
a(S'FLEX\n'
p699
F0.20999999999999996
tp700
a(S'VRNM\n'
p701
F0.20999999999999996
tp702
a(S'SPCHA\n'
p703
F0.20999999999999996
tp704
a(S'TIVO\n'
p705
F0.21000000000000085
tp706
a(S'MGLN\n'
p707
F0.21000000000000085
tp708
a(S'BNCN\n'
p709
F0.21999999999999975
tp710
a(S'OPHC\n'
p711
F0.21999999999999997
tp712
a(S'CLWR\n'
p713
F0.2200000000000002
tp714
a(S'ISSI\n'
p715
F0.22000000000000064
tp716
a(S'ROYL\n'
p717
F0.22999999999999998
tp718
a(S'KGJI\n'
p719
F0.22999999999999998
tp720
a(S'DYNT\n'
p721
F0.22999999999999998
tp722
a(S'ELTK\n'
p723
F0.22999999999999998
tp724
a(S'GLDC\n'
p725
F0.22999999999999998
tp726
a(S'GIGM\n'
p727
F0.2300000000000001
tp728
a(S'ENTG\n'
p729
F0.23000000000000043
tp730
a(S'EPAX\n'
p731
F0.23000000000000043
tp732
a(S'SVA\n'
p733
F0.23999999999999977
tp734
a(S'WRES\n'
p735
F0.23999999999999977
tp736
a(S'NVAX\n'
p737
F0.24
tp738
a(S'SPPR\n'
p739
F0.24
tp740
a(S'SPRO\n'
p741
F0.24
tp742
a(S'CUTR\n'
p743
F0.2400000000000002
tp744
a(S'VSNT\n'
p745
F0.2400000000000002
tp746
a(S'SPAR\n'
p747
F0.25
tp748
a(S'HWKN\n'
p749
F0.25
tp750
a(S'OTIV\n'
p751
F0.25
tp752
a(S'CASY\n'
p753
F0.25
tp754
a(S'VTSS\n'
p755
F0.25
tp756
a(S'RTIX\n'
p757
F0.25
tp758
a(S'ULGX\n'
p759
F0.25
tp760
a(S'COCO\n'
p761
F0.25
tp762
a(S'NECB\n'
p763
F0.25
tp764
a(S'ZGNX\n'
p765
F0.25
tp766
a(S'ENMD\n'
p767
F0.25
tp768
a(S'MNGA\n'
p769
F0.25
tp770
a(S'ZIXI\n'
p771
F0.25
tp772
a(S'HTCO\n'
p773
F0.25
tp774
a(S'STMP\n'
p775
F0.259999999999998
tp776
a(S'LPSN\n'
p777
F0.2599999999999998
tp778
a(S'ZIOP\n'
p779
F0.2599999999999998
tp780
a(S'BAMM\n'
p781
F0.2599999999999998
tp782
a(S'VRTB\n'
p783
F0.26
tp784
a(S'PLCC\n'
p785
F0.26
tp786
a(S'PCYO\n'
p787
F0.26000000000000023
tp788
a(S'HSON\n'
p789
F0.2600000000000007
tp790
a(S'BDMS\n'
p791
F0.26000000000000156
tp792
a(S'GAIN\n'
p793
F0.2699999999999996
tp794
a(S'NBTF\n'
p795
F0.2699999999999996
tp796
a(S'HPJ\n'
p797
F0.27
tp798
a(S'VIDE\n'
p799
F0.27
tp800
a(S'PPHM\n'
p801
F0.27
tp802
a(S'IKAN\n'
p803
F0.27
tp804
a(S'JMBA\n'
p805
F0.27
tp806
a(S'RVSB\n'
p807
F0.27000000000000024
tp808
a(S'WABC\n'
p809
F0.2700000000000031
tp810
a(S'AMOV\n'
p811
F0.2700000000000031
tp812
a(S'FUND\n'
p813
F0.28000000000000025
tp814
a(S'SSBI\n'
p815
F0.28000000000000025
tp816
a(S'COGO\n'
p817
F0.28000000000000025
tp818
a(S'PXLW\n'
p819
F0.28000000000000025
tp820
a(S'TRIO\n'
p821
F0.28000000000000114
tp822
a(S'EZCH\n'
p823
F0.28000000000000114
tp824
a(S'MTRX\n'
p825
F0.28000000000000114
tp826
a(S'SYBTP\n'
p827
F0.28000000000000114
tp828
a(S'ASCA\n'
p829
F0.28999999999999915
tp830
a(S'NEWL\n'
p831
F0.29000000000000004
tp832
a(S'CHLN\n'
p833
F0.29000000000000004
tp834
a(S'GPIC\n'
p835
F0.29000000000000004
tp836
a(S'EONC\n'
p837
F0.29000000000000004
tp838
a(S'VVTV\n'
p839
F0.29000000000000026
tp840
a(S'PLMT\n'
p841
F0.2900000000000009
tp842
a(S'PMTC\n'
p843
F0.2900000000000027
tp844
a(S'SKYW\n'
p845
F0.29999999999999893
tp846
a(S'FMER\n'
p847
F0.29999999999999893
tp848
a(S'DAKT\n'
p849
F0.29999999999999893
tp850
a(S'CSIQ\n'
p851
F0.2999999999999998
tp852
a(S'PEIX\n'
p853
F0.30000000000000004
tp854
a(S'ATEC\n'
p855
F0.30000000000000004
tp856
a(S'TAYD\n'
p857
F0.3000000000000007
tp858
a(S'OFLX\n'
p859
F0.3000000000000007
tp860
a(S'BCBP\n'
p861
F0.3099999999999987
tp862
a(S'TACT\n'
p863
F0.3099999999999996
tp864
a(S'ASTC\n'
p865
F0.30999999999999994
tp866
a(S'HLYS\n'
p867
F0.31000000000000005
tp868
a(S'MYRX\n'
p869
F0.31000000000000005
tp870
a(S'KRNY\n'
p871
F0.3100000000000005
tp872
a(S'ANAC\n'
p873
F0.3100000000000005
tp874
a(S'OBCI\n'
p875
F0.31999999999999984
tp876
a(S'NSYS\n'
p877
F0.31999999999999984
tp878
a(S'GIGA\n'
p879
F0.31999999999999984
tp880
a(S'CHCI\n'
p881
F0.31999999999999984
tp882
a(S'IFON\n'
p883
F0.31999999999999995
tp884
a(S'GBNK\n'
p885
F0.32000000000000006
tp886
a(S'ZINC\n'
p887
F0.3200000000000003
tp888
a(S'OPTT\n'
p889
F0.3200000000000003
tp890
a(S'HTLD\n'
p891
F0.3200000000000003
tp892
a(S'EFUT\n'
p893
F0.3200000000000003
tp894
a(S'LYTS\n'
p895
F0.3200000000000003
tp896
a(S'KOOL\n'
p897
F0.32999999999999996
tp898
a(S'MHGC\n'
p899
F0.33000000000000007
tp900
a(S'ARCW\n'
p901
F0.33000000000000007
tp902
a(S'QQQC\n'
p903
F0.33000000000000007
tp904
a(S'UCTT\n'
p905
F0.33000000000000007
tp906
a(S'ORBC\n'
p907
F0.33999999999999986
tp908
a(S'VTNC\n'
p909
F0.33999999999999986
tp910
a(S'ABTL\n'
p911
F0.33999999999999986
tp912
a(S'UBPSU\n'
p913
F0.33999999999999986
tp914
a(S'LACO\n'
p915
F0.33999999999999986
tp916
a(S'ELSE\n'
p917
F0.3400000000000003
tp918
a(S'MMSI\n'
p919
F0.34999999999999964
tp920
a(S'XTEX\n'
p921
F0.34999999999999964
tp922
a(S'ATRM\n'
p923
F0.3500000000000001
tp924
a(S'XIDE\n'
p925
F0.3500000000000001
tp926
a(S'ATHX\n'
p927
F0.3500000000000001
tp928
a(S'PNBK\n'
p929
F0.3500000000000001
tp930
a(S'KERX\n'
p931
F0.3500000000000001
tp932
a(S'MNDO\n'
p933
F0.3500000000000001
tp934
a(S'SPCHB\n'
p935
F0.3500000000000001
tp936
a(S'REFR\n'
p937
F0.3500000000000001
tp938
a(S'TFSL\n'
p939
F0.3500000000000014
tp940
a(S'QADB\n'
p941
F0.35999999999999943
tp942
a(S'CWTR\n'
p943
F0.35999999999999943
tp944
a(S'MASI\n'
p945
F0.35999999999999943
tp946
a(S'CARZ\n'
p947
F0.35999999999999943
tp948
a(S'NYNY\n'
p949
F0.3599999999999999
tp950
a(S'ADAT\n'
p951
F0.3599999999999999
tp952
a(S'TMNG\n'
p953
F0.3599999999999999
tp954
a(S'GULF\n'
p955
F0.3699999999999992
tp956
a(S'CPGI\n'
p957
F0.37
tp958
a(S'SCMR\n'
p959
F0.3700000000000001
tp960
a(S'NSIT\n'
p961
F0.370000000000001
tp962
a(S'SOXX\n'
p963
F0.37000000000000455
tp964
a(S'AMED\n'
p965
F0.379999999999999
tp966
a(S'HWCC\n'
p967
F0.379999999999999
tp968
a(S'CRIS\n'
p969
F0.3799999999999999
tp970
a(S'SYNM\n'
p971
F0.38
tp972
a(S'VSCP\n'
p973
F0.3800000000000001
tp974
a(S'SPIL\n'
p975
F0.3899999999999997
tp976
a(S'GPRC\n'
p977
F0.39
tp978
a(S'SYMX\n'
p979
F0.3900000000000001
tp980
a(S'RCII\n'
p981
F0.39000000000000057
tp982
a(S'SBBX\n'
p983
F0.39000000000000057
tp984
a(S'NBBC\n'
p985
F0.39000000000000057
tp986
a(S'NMAR\n'
p987
F0.39000000000000057
tp988
a(S'CIMT\n'
p989
F0.39999999999999947
tp990
a(S'PSUN\n'
p991
F0.3999999999999999
tp992
a(S'UMPQ\n'
p993
F0.40000000000000036
tp994
a(S'SPPI\n'
p995
F0.40000000000000036
tp996
a(S'FWRD\n'
p997
F0.4099999999999966
tp998
a(S'TIGR\n'
p999
F0.4099999999999999
tp1000
a(S'VRML\n'
p1001
F0.4099999999999999
tp1002
a(S'ASTX\n'
p1003
F0.4099999999999999
tp1004
a(S'SPU\n'
p1005
F0.41000000000000014
tp1006
a(S'CTIB\n'
p1007
F0.41000000000000014
tp1008
a(S'ISIG\n'
p1009
F0.41000000000000014
tp1010
a(S'MATR\n'
p1011
F0.41000000000000014
tp1012
a(S'IPAS\n'
p1013
F0.41000000000000014
tp1014
a(S'CCIX\n'
p1015
F0.41000000000000014
tp1016
a(S'IMMR\n'
p1017
F0.41000000000000014
tp1018
a(S'AVCA\n'
p1019
F0.41000000000000014
tp1020
a(S'QCCO\n'
p1021
F0.41000000000000014
tp1022
a(S'IPAR\n'
p1023
F0.41999999999999815
tp1024
a(S'BEAT\n'
p1025
F0.41999999999999993
tp1026
a(S'VIMC\n'
p1027
F0.41999999999999993
tp1028
a(S'FCLF\n'
p1029
F0.41999999999999993
tp1030
a(S'ARTX\n'
p1031
F0.41999999999999993
tp1032
a(S'WFD\n'
p1033
F0.41999999999999993
tp1034
a(S'TINY\n'
p1035
F0.41999999999999993
tp1036
a(S'BWOW\n'
p1037
F0.42
tp1038
a(S'ACLS\n'
p1039
F0.42000000000000004
tp1040
a(S'GLCH\n'
p1041
F0.42000000000000004
tp1042
a(S'CGEN\n'
p1043
F0.4200000000000004
tp1044
a(S'IDCC\n'
p1045
F0.4200000000000017
tp1046
a(S'BCRX\n'
p1047
F0.4299999999999997
tp1048
a(S'JOEZ\n'
p1049
F0.42999999999999994
tp1050
a(S'OSN\n'
p1051
F0.42999999999999994
tp1052
a(S'SNBC\n'
p1053
F0.43000000000000016
tp1054
a(S'KFFB\n'
p1055
F0.4300000000000006
tp1056
a(S'MAPP\n'
p1057
F0.4300000000000015
tp1058
a(S'PMTI\n'
p1059
F0.4300000000000015
tp1060
a(S'UPIP\n'
p1061
F0.43999999999999995
tp1062
a(S'ENTR\n'
p1063
F0.4400000000000004
tp1064
a(S'STRN\n'
p1065
F0.4400000000000004
tp1066
a(S'CRTX\n'
p1067
F0.4400000000000004
tp1068
a(S'CGO\n'
p1069
F0.4499999999999993
tp1070
a(S'SWKS\n'
p1071
F0.4499999999999993
tp1072
a(S'MBVT\n'
p1073
F0.4499999999999993
tp1074
a(S'MGRC\n'
p1075
F0.4499999999999993
tp1076
a(S'FSGI\n'
p1077
F0.44999999999999973
tp1078
a(S'CPRX\n'
p1079
F0.44999999999999996
tp1080
a(S'EXEL\n'
p1081
F0.4500000000000002
tp1082
a(S'ACTS\n'
p1083
F0.4500000000000002
tp1084
a(S'VDSI\n'
p1085
F0.4500000000000002
tp1086
a(S'GMAN\n'
p1087
F0.4599999999999991
tp1088
a(S'DSPG\n'
p1089
F0.45999999999999996
tp1090
a(S'VICL\n'
p1091
F0.45999999999999996
tp1092
a(S'CMRG\n'
p1093
F0.45999999999999996
tp1094
a(S'RMTI\n'
p1095
F0.45999999999999996
tp1096
a(S'CEDU\n'
p1097
F0.45999999999999996
tp1098
a(S'MCRL\n'
p1099
F0.46000000000000085
tp1100
a(S'JDSU\n'
p1101
F0.46999999999999886
tp1102
a(S'BKEP\n'
p1103
F0.46999999999999975
tp1104
a(S'NINE\n'
p1105
F0.47
tp1106
a(S'SPMD\n'
p1107
F0.4700000000000002
tp1108
a(S'EXTR\n'
p1109
F0.4700000000000002
tp1110
a(S'DMLP\n'
p1111
F0.4700000000000024
tp1112
a(S'FABK\n'
p1113
F0.47999999999999865
tp1114
a(S'ABVA\n'
p1115
F0.47999999999999954
tp1116
a(S'DSCO\n'
p1117
F0.48
tp1118
a(S'UTSI\n'
p1119
F0.48
tp1120
a(S'HBNK\n'
p1121
F0.4800000000000004
tp1122
a(S'USATP\n'
p1123
F0.4800000000000004
tp1124
a(S'UTIW\n'
p1125
F0.4800000000000004
tp1126
a(S'MOVE\n'
p1127
F0.4800000000000004
tp1128
a(S'SODA\n'
p1129
F0.480000000000004
tp1130
a(S'TRNX\n'
p1131
F0.48999999999999844
tp1132
a(S'DSWL\n'
p1133
F0.48999999999999977
tp1134
a(S'DITC\n'
p1135
F0.4899999999999999
tp1136
a(S'ZHNE\n'
p1137
F0.48999999999999994
tp1138
a(S'PTIX\n'
p1139
F0.49
tp1140
a(S'KIPS\n'
p1141
F0.49
tp1142
a(S'DRRX\n'
p1143
F0.49
tp1144
a(S'AMKR\n'
p1145
F0.4900000000000002
tp1146
a(S'PSEM\n'
p1147
F0.4900000000000002
tp1148
a(S'CYTR\n'
p1149
F0.4900000000000002
tp1150
a(S'THTI\n'
p1151
F0.4999999999999999
tp1152
a(S'LPTH\n'
p1153
F0.4999999999999999
tp1154
a(S'TQNT\n'
p1155
F0.5
tp1156
a(S'BOSC\n'
p1157
F0.5000000000000001
tp1158
a(S'ALTI\n'
p1159
F0.5000000000000001
tp1160
a(S'OCFC\n'
p1161
F0.5099999999999998
tp1162
a(S'KSWS\n'
p1163
F0.5099999999999998
tp1164
a(S'AVNW\n'
p1165
F0.5099999999999998
tp1166
a(S'TATT\n'
p1167
F0.5099999999999998
tp1168
a(S'CYTK\n'
p1169
F0.5099999999999999
tp1170
a(S'LTRX\n'
p1171
F0.51
tp1172
a(S'BWOWU\n'
p1173
F0.51
tp1174
a(S'ROIAK\n'
p1175
F0.5100000000000001
tp1176
a(S'MTSN\n'
p1177
F0.5100000000000001
tp1178
a(S'DRYS\n'
p1179
F0.5100000000000002
tp1180
a(S'SLTM\n'
p1181
F0.5100000000000002
tp1182
a(S'CNMD\n'
p1183
F0.5100000000000016
tp1184
a(S'TXN\n'
p1185
F0.5100000000000016
tp1186
a(S'CSTR\n'
p1187
F0.519999999999996
tp1188
a(S'SUPX\n'
p1189
F0.5199999999999996
tp1190
a(S'FUBC\n'
p1191
F0.5199999999999996
tp1192
a(S'FFBC\n'
p1193
F0.5199999999999996
tp1194
a(S'RUSHB\n'
p1195
F0.5199999999999996
tp1196
a(S'SFNC\n'
p1197
F0.5199999999999996
tp1198
a(S'PRWT\n'
p1199
F0.52
tp1200
a(S'LOOK\n'
p1201
F0.5200000000000001
tp1202
a(S'RCMT\n'
p1203
F0.5200000000000005
tp1204
a(S'SLAB\n'
p1205
F0.5200000000000031
tp1206
a(S'BFIN\n'
p1207
F0.5299999999999994
tp1208
a(S'PATH\n'
p1209
F0.5299999999999998
tp1210
a(S'RAND\n'
p1211
F0.5299999999999998
tp1212
a(S'KOPN\n'
p1213
F0.5300000000000002
tp1214
a(S'OUTD\n'
p1215
F0.5300000000000002
tp1216
a(S'IBKR\n'
p1217
F0.5399999999999991
tp1218
a(S'ORCL\n'
p1219
F0.5399999999999991
tp1220
a(S'QBAK\n'
p1221
F0.5399999999999998
tp1222
a(S'ZLCS\n'
p1223
F0.54
tp1224
a(S'NLST\n'
p1225
F0.54
tp1226
a(S'UNTD\n'
p1227
F0.54
tp1228
a(S'QUIK\n'
p1229
F0.54
tp1230
a(S'ESSX\n'
p1231
F0.54
tp1232
a(S'CCRT\n'
p1233
F0.54
tp1234
a(S'SMRT\n'
p1235
F0.54
tp1236
a(S'GPOR\n'
p1237
F0.5499999999999972
tp1238
a(S'CTRN\n'
p1239
F0.5499999999999989
tp1240
a(S'ROCK\n'
p1241
F0.5499999999999989
tp1242
a(S'CARV\n'
p1243
F0.5499999999999998
tp1244
a(S'UBFO\n'
p1245
F0.5499999999999998
tp1246
a(S'TRMD\n'
p1247
F0.55
tp1248
a(S'DTLK\n'
p1249
F0.5500000000000007
tp1250
a(S'DAVE\n'
p1251
F0.5500000000000007
tp1252
a(S'ANEN\n'
p1253
F0.5500000000000007
tp1254
a(S'DGICA\n'
p1255
F0.5500000000000007
tp1256
a(S'DLTR\n'
p1257
F0.5500000000000043
tp1258
a(S'ZUMZ\n'
p1259
F0.5599999999999987
tp1260
a(S'CVGW\n'
p1261
F0.5599999999999987
tp1262
a(S'CAFI\n'
p1263
F0.5599999999999998
tp1264
a(S'ROIA\n'
p1265
F0.5599999999999999
tp1266
a(S'HILL\n'
p1267
F0.5599999999999999
tp1268
a(S'ALVR\n'
p1269
F0.56
tp1270
a(S'TWER\n'
p1271
F0.56
tp1272
a(S'ENZN\n'
p1273
F0.5600000000000005
tp1274
a(S'LOGI\n'
p1275
F0.5600000000000005
tp1276
a(S'OMCL\n'
p1277
F0.5600000000000005
tp1278
a(S'BSTC\n'
p1279
F0.5600000000000005
tp1280
a(S'MU\n'
p1281
F0.5600000000000005
tp1282
a(S'SMIT\n'
p1283
F0.5699999999999998
tp1284
a(S'TBAC\n'
p1285
F0.5799999999999998
tp1286
a(S'SPNS\n'
p1287
F0.5800000000000001
tp1288
a(S'BLDP\n'
p1289
F0.5800000000000001
tp1290
a(S'MALL\n'
p1291
F0.5800000000000001
tp1292
a(S'CXDC\n'
p1293
F0.5899999999999999
tp1294
a(S'IVAN\n'
p1295
F0.59
tp1296
a(S'FFEX\n'
p1297
F0.5900000000000001
tp1298
a(S'RNIN\n'
p1299
F0.5900000000000001
tp1300
a(S'NYMT\n'
p1301
F0.5900000000000007
tp1302
a(S'BANC\n'
p1303
F0.5999999999999996
tp1304
a(S'IGOI\n'
p1305
F0.5999999999999999
tp1306
a(S'CYTX\n'
p1307
F0.6000000000000001
tp1308
a(S'CART\n'
p1309
F0.6000000000000001
tp1310
a(S'KUTV\n'
p1311
F0.6000000000000001
tp1312
a(S'AMIC\n'
p1313
F0.6000000000000005
tp1314
a(S'RICK\n'
p1315
F0.6000000000000005
tp1316
a(S'WERN\n'
p1317
F0.6000000000000014
tp1318
a(S'MCBC\n'
p1319
F0.6099999999999999
tp1320
a(S'CMLS\n'
p1321
F0.6100000000000003
tp1322
a(S'HA\n'
p1323
F0.6100000000000003
tp1324
a(S'ICCC\n'
p1325
F0.6199999999999992
tp1326
a(S'CTCM\n'
p1327
F0.6199999999999992
tp1328
a(S'FREE\n'
p1329
F0.62
tp1330
a(S'URRE\n'
p1331
F0.6200000000000001
tp1332
a(S'CXPO\n'
p1333
F0.6299999999999999
tp1334
a(S'FTR\n'
p1335
F0.6299999999999999
tp1336
a(S'GENE\n'
p1337
F0.6300000000000003
tp1338
a(S'WMAR\n'
p1339
F0.6300000000000008
tp1340
a(S'ABCB\n'
p1341
F0.6300000000000008
tp1342
a(S'CTSH\n'
p1343
F0.6400000000000006
tp1344
a(S'GENC\n'
p1345
F0.6499999999999995
tp1346
a(S'ANTP\n'
p1347
F0.6499999999999999
tp1348
a(S'AUDC\n'
p1349
F0.6499999999999999
tp1350
a(S'ESSA\n'
p1351
F0.6500000000000004
tp1352
a(S'PRIM\n'
p1353
F0.6500000000000004
tp1354
a(S'FULT\n'
p1355
F0.6500000000000004
tp1356
a(S'FNFG\n'
p1357
F0.6500000000000004
tp1358
a(S'COBK\n'
p1359
F0.6500000000000004
tp1360
a(S'SVBI\n'
p1361
F0.6500000000000004
tp1362
a(S'AETI\n'
p1363
F0.6500000000000004
tp1364
a(S'LTXC\n'
p1365
F0.6500000000000004
tp1366
a(S'IMRS\n'
p1367
F0.6599999999999997
tp1368
a(S'CTEL\n'
p1369
F0.6599999999999997
tp1370
a(S'LUNA\n'
p1371
F0.6599999999999999
tp1372
a(S'RCON\n'
p1373
F0.6599999999999999
tp1374
a(S'PESI\n'
p1375
F0.66
tp1376
a(S'MCRI\n'
p1377
F0.6600000000000001
tp1378
a(S'GAGA\n'
p1379
F0.6600000000000001
tp1380
a(S'CAMT\n'
p1381
F0.6600000000000001
tp1382
a(S'ETRM\n'
p1383
F0.6600000000000001
tp1384
a(S'PDII\n'
p1385
F0.6600000000000001
tp1386
a(S'PICO\n'
p1387
F0.6600000000000001
tp1388
a(S'TSLA\n'
p1389
F0.6600000000000001
tp1390
a(S'BDE\n'
p1391
F0.6600000000000001
tp1392
a(S'NUVA\n'
p1393
F0.6600000000000001
tp1394
a(S'TTEC\n'
p1395
F0.6600000000000001
tp1396
a(S'EPAY\n'
p1397
F0.6600000000000001
tp1398
a(S'QDEL\n'
p1399
F0.6699999999999982
tp1400
a(S'NGPC\n'
p1401
F0.6699999999999999
tp1402
a(S'LXRX\n'
p1403
F0.6699999999999999
tp1404
a(S'OCLS\n'
p1405
F0.6699999999999999
tp1406
a(S'IRIX\n'
p1407
F0.6700000000000004
tp1408
a(S'PCOM\n'
p1409
F0.6799999999999997
tp1410
a(S'CYAN\n'
p1411
F0.6799999999999997
tp1412
a(S'CHEF\n'
p1413
F0.6799999999999997
tp1414
a(S'MASC\n'
p1415
F0.6799999999999997
tp1416
a(S'TRIT\n'
p1417
F0.6800000000000002
tp1418
a(S'UNTK\n'
p1419
F0.6800000000000006
tp1420
a(S'WIFI\n'
p1421
F0.6899999999999995
tp1422
a(S'BSDM\n'
p1423
F0.69
tp1424
a(S'HPOL\n'
p1425
F0.69
tp1426
a(S'CEDC\n'
p1427
F0.69
tp1428
a(S'RGDX\n'
p1429
F0.69
tp1430
a(S'WVVI\n'
p1431
F0.6999999999999997
tp1432
a(S'OVRL\n'
p1433
F0.7
tp1434
a(S'SDIX\n'
p1435
F0.7
tp1436
a(S'SINO\n'
p1437
F0.7000000000000002
tp1438
a(S'AIRT\n'
p1439
F0.7000000000000011
tp1440
a(S'KFRC\n'
p1441
F0.7000000000000011
tp1442
a(S'IRDM\n'
p1443
F0.71
tp1444
a(S'JRJC\n'
p1445
F0.71
tp1446
a(S'AVID\n'
p1447
F0.71
tp1448
a(S'CPWR\n'
p1449
F0.7100000000000009
tp1450
a(S'SNHY\n'
p1451
F0.7100000000000009
tp1452
a(S'ESBF\n'
p1453
F0.7199999999999989
tp1454
a(S'EVEP\n'
p1455
F0.7199999999999989
tp1456
a(S'EDGW\n'
p1457
F0.7199999999999998
tp1458
a(S'FCVA\n'
p1459
F0.7199999999999998
tp1460
a(S'BRKL\n'
p1461
F0.7199999999999998
tp1462
a(S'IDSY\n'
p1463
F0.7199999999999998
tp1464
a(S'CHYR\n'
p1465
F0.72
tp1466
a(S'SPIR\n'
p1467
F0.72
tp1468
a(S'OXGN\n'
p1469
F0.72
tp1470
a(S'DRAM\n'
p1471
F0.72
tp1472
a(S'PFBX\n'
p1473
F0.7200000000000006
tp1474
a(S'HNRG\n'
p1475
F0.7200000000000006
tp1476
a(S'LMIA\n'
p1477
F0.7200000000000024
tp1478
a(S'AMCN\n'
p1479
F0.73
tp1480
a(S'RITT\n'
p1481
F0.73
tp1482
a(S'FRBK\n'
p1483
F0.73
tp1484
a(S'PRPH\n'
p1485
F0.7300000000000001
tp1486
a(S'MCGC\n'
p1487
F0.7300000000000004
tp1488
a(S'VRNT\n'
p1489
F0.7399999999999984
tp1490
a(S'MMUS\n'
p1491
F0.7399999999999998
tp1492
a(S'HDNG\n'
p1493
F0.7400000000000002
tp1494
a(S'CYCCP\n'
p1495
F0.7400000000000002
tp1496
a(S'TRST\n'
p1497
F0.75
tp1498
a(S'CDZI\n'
p1499
F0.75
tp1500
a(S'TTHI\n'
p1501
F0.75
tp1502
a(S'MSLI\n'
p1503
F0.75
tp1504
a(S'UEIC\n'
p1505
F0.75
tp1506
a(S'TROV\n'
p1507
F0.75
tp1508
a(S'WRLD\n'
p1509
F0.7599999999999909
tp1510
a(S'ALOT\n'
p1511
F0.7599999999999989
tp1512
a(S'BNCL\n'
p1513
F0.7599999999999998
tp1514
a(S'PRKR\n'
p1515
F0.76
tp1516
a(S'STLD\n'
p1517
F0.7600000000000016
tp1518
a(S'STBA\n'
p1519
F0.7600000000000016
tp1520
a(S'IBKC\n'
p1521
F0.769999999999996
tp1522
a(S'AMOT\n'
p1523
F0.7699999999999996
tp1524
a(S'BYFC\n'
p1525
F0.77
tp1526
a(S'ORBT\n'
p1527
F0.77
tp1528
a(S'NEWT\n'
p1529
F0.77
tp1530
a(S'USBI\n'
p1531
F0.7700000000000005
tp1532
a(S'LCAV\n'
p1533
F0.7799999999999998
tp1534
a(S'DARA\n'
p1535
F0.78
tp1536
a(S'XRSC\n'
p1537
F0.78
tp1538
a(S'TITN\n'
p1539
F0.7800000000000011
tp1540
a(S'RUSHA\n'
p1541
F0.7800000000000011
tp1542
a(S'DXYN\n'
p1543
F0.79
tp1544
a(S'FORD\n'
p1545
F0.79
tp1546
a(S'LPSB\n'
p1547
F0.79
tp1548
a(S'XWES\n'
p1549
F0.7999999999999998
tp1550
a(S'INOC\n'
p1551
F0.7999999999999998
tp1552
a(S'SMTX\n'
p1553
F0.8000000000000003
tp1554
a(S'TSYS\n'
p1555
F0.8000000000000003
tp1556
a(S'OPLK\n'
p1557
F0.8000000000000007
tp1558
a(S'NATR\n'
p1559
F0.8000000000000007
tp1560
a(S'CMCO\n'
p1561
F0.8000000000000007
tp1562
a(S'PTRY\n'
p1563
F0.8099999999999987
tp1564
a(S'GSIT\n'
p1565
F0.8099999999999996
tp1566
a(S'COBR\n'
p1567
F0.8099999999999996
tp1568
a(S'SGRP\n'
p1569
F0.81
tp1570
a(S'COA\n'
p1571
F0.8100000000000005
tp1572
a(S'STB\n'
p1573
F0.8199999999999994
tp1574
a(S'FLWS\n'
p1575
F0.8199999999999998
tp1576
a(S'ASRV\n'
p1577
F0.8199999999999998
tp1578
a(S'PVFC\n'
p1579
F0.8199999999999998
tp1580
a(S'NTRI\n'
p1581
F0.8200000000000003
tp1582
a(S'YORW\n'
p1583
F0.8200000000000003
tp1584
a(S'TZYM\n'
p1585
F0.8200000000000003
tp1586
a(S'ISLE\n'
p1587
F0.8200000000000003
tp1588
a(S'LMAT\n'
p1589
F0.8300000000000001
tp1590
a(S'SEAC\n'
p1591
F0.8300000000000001
tp1592
a(S'EXFO\n'
p1593
F0.8300000000000001
tp1594
a(S'UBNK\n'
p1595
F0.8300000000000001
tp1596
a(S'ATEA\n'
p1597
F0.8300000000000001
tp1598
a(S'MOCO\n'
p1599
F0.8399999999999999
tp1600
a(S'CLFD\n'
p1601
F0.8399999999999999
tp1602
a(S'FLOW\n'
p1603
F0.8399999999999999
tp1604
a(S'OPXA\n'
p1605
F0.8399999999999999
tp1606
a(S'ESYS\n'
p1607
F0.8399999999999999
tp1608
a(S'INDY\n'
p1609
F0.8399999999999999
tp1610
a(S'MLHR\n'
p1611
F0.8399999999999999
tp1612
a(S'AMAT\n'
p1613
F0.8399999999999999
tp1614
a(S'HMNY\n'
p1615
F0.8400000000000001
tp1616
a(S'OCC\n'
p1617
F0.8400000000000003
tp1618
a(S'CTCH\n'
p1619
F0.8400000000000003
tp1620
a(S'AHGP\n'
p1621
F0.8499999999999943
tp1622
a(S'BICK\n'
p1623
F0.8499999999999979
tp1624
a(S'BBGI\n'
p1625
F0.8499999999999996
tp1626
a(S'CBNK\n'
p1627
F0.8499999999999996
tp1628
a(S'QLTI\n'
p1629
F0.8499999999999996
tp1630
a(S'LABC\n'
p1631
F0.8499999999999996
tp1632
a(S'BONA\n'
p1633
F0.8499999999999996
tp1634
a(S'ABIO\n'
p1635
F0.8499999999999999
tp1636
a(S'VIRC\n'
p1637
F0.8500000000000001
tp1638
a(S'RBPAA\n'
p1639
F0.8500000000000001
tp1640
a(S'RADA\n'
p1641
F0.8500000000000001
tp1642
a(S'ACFC\n'
p1643
F0.8500000000000001
tp1644
a(S'ELRC\n'
p1645
F0.8599999999999994
tp1646
a(S'OVTI\n'
p1647
F0.8599999999999994
tp1648
a(S'CPSI\n'
p1649
F0.8599999999999994
tp1650
a(S'CNIT\n'
p1651
F0.8600000000000001
tp1652
a(S'FALC\n'
p1653
F0.8600000000000003
tp1654
a(S'PLAB\n'
p1655
F0.8600000000000003
tp1656
a(S'CDTI\n'
p1657
F0.8700000000000001
tp1658
a(S'PLNR\n'
p1659
F0.8700000000000001
tp1660
a(S'CZWI\n'
p1661
F0.8700000000000001
tp1662
a(S'GCVRZ\n'
p1663
F0.8700000000000001
tp1664
a(S'WEYS\n'
p1665
F0.879999999999999
tp1666
a(S'LRAD\n'
p1667
F0.8799999999999999
tp1668
a(S'CLSN\n'
p1669
F0.8799999999999999
tp1670
a(S'FMCN\n'
p1671
F0.889999999999997
tp1672
a(S'PCTI\n'
p1673
F0.8899999999999997
tp1674
a(S'NOOF\n'
p1675
F0.8899999999999997
tp1676
a(S'HSOL\n'
p1677
F0.8899999999999999
tp1678
a(S'LOJN\n'
p1679
F0.8900000000000001
tp1680
a(S'ONVI\n'
p1681
F0.8900000000000001
tp1682
a(S'GSOL\n'
p1683
F0.8900000000000006
tp1684
a(S'ASFI\n'
p1685
F0.8900000000000006
tp1686
a(S'BRKR\n'
p1687
F0.8900000000000006
tp1688
a(S'NVMI\n'
p1689
F0.8900000000000006
tp1690
a(S'CPNO\n'
p1691
F0.8999999999999986
tp1692
a(S'HAVNP\n'
p1693
F0.8999999999999986
tp1694
a(S'JADE\n'
p1695
F0.9000000000000001
tp1696
a(S'ZN\n'
p1697
F0.9000000000000001
tp1698
a(S'PRXI\n'
p1699
F0.9000000000000001
tp1700
a(S'MAG\n'
p1701
F0.9000000000000004
tp1702
a(S'CMSB\n'
p1703
F0.9000000000000004
tp1704
a(S'EMMT\n'
p1705
F0.9000000000000021
tp1706
a(S'TSRA\n'
p1707
F0.9099999999999984
tp1708
a(S'SGMA\n'
p1709
F0.9099999999999997
tp1710
a(S'EDUC\n'
p1711
F0.9100000000000001
tp1712
a(S'WSTG\n'
p1713
F0.9100000000000001
tp1714
a(S'WEN\n'
p1715
F0.9100000000000001
tp1716
a(S'HIMX\n'
p1717
F0.9199999999999999
tp1718
a(S'CRDC\n'
p1719
F0.9199999999999999
tp1720
a(S'SCLN\n'
p1721
F0.9199999999999999
tp1722
a(S'GLUU\n'
p1723
F0.9199999999999999
tp1724
a(S'EMKR\n'
p1725
F0.9199999999999999
tp1726
a(S'BMTI\n'
p1727
F0.9200000000000004
tp1728
a(S'RJET\n'
p1729
F0.9200000000000008
tp1730
a(S'ALTE\n'
p1731
F0.9200000000000017
tp1732
a(S'VCLK\n'
p1733
F0.9200000000000017
tp1734
a(S'INAP\n'
p1735
F0.9299999999999997
tp1736
a(S'CHDX\n'
p1737
F0.9299999999999997
tp1738
a(S'PRGS\n'
p1739
F0.9299999999999997
tp1740
a(S'EXLP\n'
p1741
F0.9299999999999997
tp1742
a(S'SONS\n'
p1743
F0.9299999999999997
tp1744
a(S'PDCE\n'
p1745
F0.9299999999999997
tp1746
a(S'UCBA\n'
p1747
F0.9299999999999997
tp1748
a(S'CNTF\n'
p1749
F0.9299999999999999
tp1750
a(S'ZIPR\n'
p1751
F0.9299999999999999
tp1752
a(S'GERN\n'
p1753
F0.9299999999999999
tp1754
a(S'DYSL\n'
p1755
F0.9300000000000002
tp1756
a(S'AMCC\n'
p1757
F0.9300000000000006
tp1758
a(S'PHMD\n'
p1759
F0.9399999999999995
tp1760
a(S'LSBK\n'
p1761
F0.9399999999999995
tp1762
a(S'MTEX\n'
p1763
F0.9399999999999995
tp1764
a(S'IDRA\n'
p1765
F0.94
tp1766
a(S'VIFL\n'
p1767
F0.9400000000000004
tp1768
a(S'VOXX\n'
p1769
F0.9400000000000004
tp1770
a(S'SMED\n'
p1771
F0.9400000000000004
tp1772
a(S'BDGE\n'
p1773
F0.9400000000000013
tp1774
a(S'LPNT\n'
p1775
F0.9499999999999957
tp1776
a(S'MSEX\n'
p1777
F0.9499999999999993
tp1778
a(S'SILC\n'
p1779
F0.9499999999999993
tp1780
a(S'ISIS\n'
p1781
F0.9499999999999993
tp1782
a(S'LIOX\n'
p1783
F0.9499999999999997
tp1784
a(S'MCOX\n'
p1785
F0.9500000000000001
tp1786
a(S'MOSY\n'
p1787
F0.9500000000000002
tp1788
a(S'TLF\n'
p1789
F0.9500000000000002
tp1790
a(S'CHEV\n'
p1791
F0.9599999999999991
tp1792
a(S'SQNM\n'
p1793
F0.9599999999999995
tp1794
a(S'DAEG\n'
p1795
F0.9599999999999997
tp1796
a(S'PMCS\n'
p1797
F0.96
tp1798
a(S'VBFC\n'
p1799
F0.9600000000000001
tp1800
a(S'ADES\n'
p1801
F0.9699999999999989
tp1802
a(S'ADSK\n'
p1803
F0.9699999999999989
tp1804
a(S'IGTE\n'
p1805
F0.9699999999999989
tp1806
a(S'CU\n'
p1807
F0.9699999999999989
tp1808
a(S'PSTB\n'
p1809
F0.9699999999999998
tp1810
a(S'TSRI\n'
p1811
F0.9699999999999998
tp1812
a(S'NEON\n'
p1813
F0.9699999999999998
tp1814
a(S'VALV\n'
p1815
F0.97
tp1816
a(S'BPHX\n'
p1817
F0.9700000000000002
tp1818
a(S'DSTI\n'
p1819
F0.9700000000000002
tp1820
a(S'OVBC\n'
p1821
F0.9700000000000024
tp1822
a(S'CBSH\n'
p1823
F0.9799999999999969
tp1824
a(S'CJJD\n'
p1825
F0.98
tp1826
a(S'CALD\n'
p1827
F0.9800000000000004
tp1828
a(S'LAYN\n'
p1829
F0.9800000000000004
tp1830
a(S'PRAN\n'
p1831
F0.9899999999999998
tp1832
a(S'AHPI\n'
p1833
F0.9899999999999998
tp1834
a(S'ZOOM\n'
p1835
F0.99
tp1836
a(S'QADA\n'
p1837
F0.9900000000000002
tp1838
a(S'CVBF\n'
p1839
F0.9900000000000002
tp1840
a(S'NICK\n'
p1841
F0.9900000000000002
tp1842
a(S'ERIC\n'
p1843
F0.9900000000000002
tp1844
a(S'UFPT\n'
p1845
F0.9900000000000002
tp1846
a(S'TBOW\n'
p1847
F0.9999999999999998
tp1848
a(S'CBEY\n'
p1849
F1.0
tp1850
a(S'GAIA\n'
p1851
F1.0
tp1852
a(S'VSBN\n'
p1853
F1.0
tp1854
a(S'RSOL\n'
p1855
F1.0
tp1856
a(S'UNAM\n'
p1857
F1.0099999999999998
tp1858
a(S'LAKE\n'
p1859
F1.0099999999999998
tp1860
a(S'DLHC\n'
p1861
F1.01
tp1862
a(S'AMSC\n'
p1863
F1.0100000000000002
tp1864
a(S'MOTR\n'
p1865
F1.0100000000000002
tp1866
a(S'SANM\n'
p1867
F1.0199999999999996
tp1868
a(S'IKNX\n'
p1869
F1.0199999999999996
tp1870
a(S'LWAY\n'
p1871
F1.0199999999999996
tp1872
a(S'EPOC\n'
p1873
F1.0200000000000005
tp1874
a(S'CFFN\n'
p1875
F1.0299999999999994
tp1876
a(S'SKBI\n'
p1877
F1.0299999999999998
tp1878
a(S'PSTI\n'
p1879
F1.0299999999999998
tp1880
a(S'LLEN\n'
p1881
F1.03
tp1882
a(S'MNKD\n'
p1883
F1.0300000000000002
tp1884
a(S'PATR\n'
p1885
F1.0399999999999991
tp1886
a(S'EMITF\n'
p1887
F1.04
tp1888
a(S'MGIC\n'
p1889
F1.04
tp1890
a(S'RMTR\n'
p1891
F1.04
tp1892
a(S'NPBC\n'
p1893
F1.04
tp1894
a(S'NEXS\n'
p1895
F1.04
tp1896
a(S'CCRN\n'
p1897
F1.0499999999999998
tp1898
a(S'BOVA\n'
p1899
F1.0499999999999998
tp1900
a(S'CPSL\n'
p1901
F1.05
tp1902
a(S'FFKY\n'
p1903
F1.05
tp1904
a(S'ADEP\n'
p1905
F1.0500000000000003
tp1906
a(S'AMRI\n'
p1907
F1.06
tp1908
a(S'YOD\n'
p1909
F1.06
tp1910
a(S'FFN\n'
p1911
F1.06
tp1912
a(S'PACR\n'
p1913
F1.06
tp1914
a(S'VSCI\n'
p1915
F1.06
tp1916
a(S'BLIN\n'
p1917
F1.06
tp1918
a(S'INVE\n'
p1919
F1.06
tp1920
a(S'WLB\n'
p1921
F1.0600000000000005
tp1922
a(S'CWCO\n'
p1923
F1.0600000000000005
tp1924
a(S'CPBC\n'
p1925
F1.0699999999999994
tp1926
a(S'GSM\n'
p1927
F1.0700000000000003
tp1928
a(S'PLPC\n'
p1929
F1.0700000000000003
tp1930
a(S'LCNB\n'
p1931
F1.0700000000000003
tp1932
a(S'IMGN\n'
p1933
F1.08
tp1934
a(S'MFLX\n'
p1935
F1.0899999999999999
tp1936
a(S'MLNK\n'
p1937
F1.0899999999999999
tp1938
a(S'EXLS\n'
p1939
F1.0899999999999999
tp1940
a(S'GURE\n'
p1941
F1.0899999999999999
tp1942
a(S'JBLU\n'
p1943
F1.0899999999999999
tp1944
a(S'XOMA\n'
p1945
F1.0899999999999999
tp1946
a(S'SCON\n'
p1947
F1.09
tp1948
a(S'CUBA\n'
p1949
F1.0900000000000007
tp1950
a(S'KELYA\n'
p1951
F1.0999999999999996
tp1952
a(S'FXEN\n'
p1953
F1.0999999999999996
tp1954
a(S'ACAD\n'
p1955
F1.0999999999999999
tp1956
a(S'CWBC\n'
p1957
F1.0999999999999999
tp1958
a(S'CBLI\n'
p1959
F1.1
tp1960
a(S'NEPT\n'
p1961
F1.1
tp1962
a(S'SIRI\n'
p1963
F1.1000000000000003
tp1964
a(S'ONNN\n'
p1965
F1.1000000000000005
tp1966
a(S'MRTN\n'
p1967
F1.1000000000000014
tp1968
a(S'HAYN\n'
p1969
F1.1000000000000014
tp1970
a(S'VOD\n'
p1971
F1.1000000000000014
tp1972
a(S'CTHR\n'
p1973
F1.1099999999999999
tp1974
a(S'CISG\n'
p1975
F1.1199999999999992
tp1976
a(S'FFHL\n'
p1977
F1.12
tp1978
a(S'KNDI\n'
p1979
F1.12
tp1980
a(S'SQI\n'
p1981
F1.120000000000001
tp1982
a(S'TSON\n'
p1983
F1.13
tp1984
a(S'GILT\n'
p1985
F1.13
tp1986
a(S'ULBI\n'
p1987
F1.13
tp1988
a(S'PAGG\n'
p1989
F1.1300000000000026
tp1990
a(S'FONE\n'
p1991
F1.1300000000000026
tp1992
a(S'RAVN\n'
p1993
F1.1300000000000026
tp1994
a(S'OVLY\n'
p1995
F1.1399999999999997
tp1996
a(S'HLIT\n'
p1997
F1.1399999999999997
tp1998
a(S'PFSW\n'
p1999
F1.1400000000000001
tp2000
a(S'WWD\n'
p2001
F1.1400000000000006
tp2002
a(S'NYMX\n'
p2003
F1.1400000000000006
tp2004
a(S'NEWP\n'
p2005
F1.1400000000000006
tp2006
a(S'THRX\n'
p2007
F1.1400000000000006
tp2008
a(S'AAME\n'
p2009
F1.15
tp2010
a(S'LCUT\n'
p2011
F1.1500000000000004
tp2012
a(S'FFNM\n'
p2013
F1.1500000000000004
tp2014
a(S'HGSH\n'
p2015
F1.16
tp2016
a(S'ALCS\n'
p2017
F1.1600000000000001
tp2018
a(S'DENN\n'
p2019
F1.1600000000000001
tp2020
a(S'HOME\n'
p2021
F1.1600000000000001
tp2022
a(S'ANAD\n'
p2023
F1.1600000000000001
tp2024
a(S'LMLP\n'
p2025
F1.1600000000000001
tp2026
a(S'GFN\n'
p2027
F1.1600000000000001
tp2028
a(S'BOCH\n'
p2029
F1.1600000000000006
tp2030
a(S'BRCD\n'
p2031
F1.17
tp2032
a(S'STKL\n'
p2033
F1.17
tp2034
a(S'UPI\n'
p2035
F1.17
tp2036
a(S'SCMP\n'
p2037
F1.17
tp2038
a(S'PLXT\n'
p2039
F1.1700000000000004
tp2040
a(S'NCTY\n'
p2041
F1.1799999999999997
tp2042
a(S'CLMS\n'
p2043
F1.1799999999999997
tp2044
a(S'GNCMA\n'
p2045
F1.1799999999999997
tp2046
a(S'EMMS\n'
p2047
F1.18
tp2048
a(S'LLNW\n'
p2049
F1.1800000000000002
tp2050
a(S'AINV\n'
p2051
F1.1800000000000006
tp2052
a(S'ECTE\n'
p2053
F1.19
tp2054
a(S'HERO\n'
p2055
F1.19
tp2056
a(S'ASTM\n'
p2057
F1.19
tp2058
a(S'JASO\n'
p2059
F1.19
tp2060
a(S'BREW\n'
p2061
F1.1900000000000004
tp2062
a(S'MKTG\n'
p2063
F1.1900000000000004
tp2064
a(S'PWER\n'
p2065
F1.1900000000000004
tp2066
a(S'CIZN\n'
p2067
F1.1999999999999993
tp2068
a(S'OBAF\n'
p2069
F1.1999999999999993
tp2070
a(S'FBRC\n'
p2071
F1.2
tp2072
a(S'MAGS\n'
p2073
F1.2000000000000002
tp2074
a(S'LIWA\n'
p2075
F1.2000000000000002
tp2076
a(S'TGE\n'
p2077
F1.2000000000000002
tp2078
a(S'KONG\n'
p2079
F1.2000000000000002
tp2080
a(S'EXAS\n'
p2081
F1.209999999999999
tp2082
a(S'EBMT\n'
p2083
F1.209999999999999
tp2084
a(S'OINK\n'
p2085
F1.2099999999999997
tp2086
a(S'HSKA\n'
p2087
F1.21
tp2088
a(S'BFLY\n'
p2089
F1.21
tp2090
a(S'SYMM\n'
p2091
F1.21
tp2092
a(S'BIRT\n'
p2093
F1.21
tp2094
a(S'BTUI\n'
p2095
F1.2100000000000002
tp2096
a(S'INTG\n'
p2097
F1.2100000000000009
tp2098
a(S'NSSC\n'
p2099
F1.2199999999999998
tp2100
a(S'HBAN\n'
p2101
F1.2199999999999998
tp2102
a(S'BTFG\n'
p2103
F1.22
tp2104
a(S'MEMS\n'
p2105
F1.22
tp2106
a(S'PSCE\n'
p2107
F1.2299999999999969
tp2108
a(S'WILC\n'
p2109
F1.2299999999999995
tp2110
a(S'TOPS\n'
p2111
F1.23
tp2112
a(S'EXAC\n'
p2113
F1.2300000000000004
tp2114
a(S'HSFT\n'
p2115
F1.2300000000000004
tp2116
a(S'CATM\n'
p2117
F1.2300000000000004
tp2118
a(S'LGCY\n'
p2119
F1.2399999999999984
tp2120
a(S'LBIX\n'
p2121
F1.2399999999999998
tp2122
a(S'VRTU\n'
p2123
F1.2400000000000002
tp2124
a(S'WWIN\n'
p2125
F1.2400000000000002
tp2126
a(S'ATNY\n'
p2127
F1.2400000000000002
tp2128
a(S'PCBK\n'
p2129
F1.2400000000000002
tp2130
a(S'ONTY\n'
p2131
F1.2400000000000002
tp2132
a(S'MFI\n'
p2133
F1.2400000000000002
tp2134
a(S'PTIE\n'
p2135
F1.25
tp2136
a(S'HBMD\n'
p2137
F1.25
tp2138
a(S'AMAP\n'
p2139
F1.25
tp2140
a(S'SLXP\n'
p2141
F1.25
tp2142
a(S'TWMC\n'
p2143
F1.25
tp2144
a(S'RECV\n'
p2145
F1.25
tp2146
a(S'ATSG\n'
p2147
F1.2599999999999998
tp2148
a(S'HEAT\n'
p2149
F1.2599999999999998
tp2150
a(S'ANLY\n'
p2151
F1.2600000000000002
tp2152
a(S'ECHO\n'
p2153
F1.2699999999999978
tp2154
a(S'NUCL\n'
p2155
F1.2699999999999996
tp2156
a(S'OPOF\n'
p2157
F1.2699999999999996
tp2158
a(S'PCO\n'
p2159
F1.2699999999999998
tp2160
a(S'CPHC\n'
p2161
F1.2799999999999994
tp2162
a(S'CZFC\n'
p2163
F1.2799999999999994
tp2164
a(S'SYKE\n'
p2165
F1.2799999999999994
tp2166
a(S'MARPS\n'
p2167
F1.2800000000000011
tp2168
a(S'AVGO\n'
p2169
F1.2800000000000011
tp2170
a(S'IBCA\n'
p2171
F1.2899999999999996
tp2172
a(S'TXCC\n'
p2173
F1.29
tp2174
a(S'MERC\n'
p2175
F1.29
tp2176
a(S'SBSA\n'
p2177
F1.29
tp2178
a(S'CADX\n'
p2179
F1.2900000000000005
tp2180
a(S'ULTR\n'
p2181
F1.2999999999999998
tp2182
a(S'UBOH\n'
p2183
F1.2999999999999998
tp2184
a(S'BKOR\n'
p2185
F1.3000000000000003
tp2186
a(S'WAYN\n'
p2187
F1.3000000000000007
tp2188
a(S'NDAQ\n'
p2189
F1.3000000000000007
tp2190
a(S'DEPO\n'
p2191
F1.3099999999999996
tp2192
a(S'HIHO\n'
p2193
F1.3099999999999998
tp2194
a(S'SEED\n'
p2195
F1.3099999999999998
tp2196
a(S'ECTY\n'
p2197
F1.31
tp2198
a(S'CBNJ\n'
p2199
F1.3100000000000005
tp2200
a(S'TLAB\n'
p2201
F1.3199999999999998
tp2202
a(S'OIIM\n'
p2203
F1.3199999999999998
tp2204
a(S'QTWW\n'
p2205
F1.3199999999999998
tp2206
a(S'FBNK\n'
p2207
F1.3200000000000003
tp2208
a(S'FINL\n'
p2209
F1.3200000000000003
tp2210
a(S'MSCC\n'
p2211
F1.3299999999999983
tp2212
a(S'ALRN\n'
p2213
F1.3299999999999998
tp2214
a(S'EGOV\n'
p2215
F1.33
tp2216
a(S'TNAV\n'
p2217
F1.33
tp2218
a(S'BKMU\n'
p2219
F1.33
tp2220
a(S'MPAC\n'
p2221
F1.33
tp2222
a(S'STEI\n'
p2223
F1.3399999999999999
tp2224
a(S'BERK\n'
p2225
F1.3399999999999999
tp2226
a(S'WIN\n'
p2227
F1.3399999999999999
tp2228
a(S'BSPM\n'
p2229
F1.34
tp2230
a(S'GLAD\n'
p2231
F1.3500000000000005
tp2232
a(S'PWRD\n'
p2233
F1.3599999999999994
tp2234
a(S'UBSI\n'
p2235
F1.3599999999999994
tp2236
a(S'NURO\n'
p2237
F1.3599999999999999
tp2238
a(S'GNVC\n'
p2239
F1.3599999999999999
tp2240
a(S'GSIG\n'
p2241
F1.3600000000000003
tp2242
a(S'BIOL\n'
p2243
F1.3600000000000003
tp2244
a(S'RECN\n'
p2245
F1.3699999999999992
tp2246
a(S'DVAX\n'
p2247
F1.37
tp2248
a(S'VISN\n'
p2249
F1.37
tp2250
a(S'SGYP\n'
p2251
F1.37
tp2252
a(S'GNOM\n'
p2253
F1.37
tp2254
a(S'AAON\n'
p2255
F1.370000000000001
tp2256
a(S'EFSC\n'
p2257
F1.370000000000001
tp2258
a(S'MIND\n'
p2259
F1.370000000000001
tp2260
a(S'PSCU\n'
p2261
F1.379999999999999
tp2262
a(S'CHI\n'
p2263
F1.379999999999999
tp2264
a(S'FCTY\n'
p2265
F1.3799999999999994
tp2266
a(S'ATRS\n'
p2267
F1.38
tp2268
a(S'RDCM\n'
p2269
F1.38
tp2270
a(S'NSPH\n'
p2271
F1.3800000000000001
tp2272
a(S'USEG\n'
p2273
F1.3800000000000001
tp2274
a(S'SGMS\n'
p2275
F1.3800000000000008
tp2276
a(S'GALE\n'
p2277
F1.3900000000000001
tp2278
a(S'CCCL\n'
p2279
F1.3900000000000001
tp2280
a(S'EGAN\n'
p2281
F1.3900000000000006
tp2282
a(S'ADRA\n'
p2283
F1.3999999999999986
tp2284
a(S'MTSL\n'
p2285
F1.4000000000000001
tp2286
a(S'CVTI\n'
p2287
F1.4000000000000004
tp2288
a(S'ROSE\n'
p2289
F1.4099999999999966
tp2290
a(S'PBIP\n'
p2291
F1.4099999999999993
tp2292
a(S'SWIR\n'
p2293
F1.4099999999999993
tp2294
a(S'MINI\n'
p2295
F1.4100000000000001
tp2296
a(S'RLJE\n'
p2297
F1.4100000000000001
tp2298
a(S'HBHC\n'
p2299
F1.4100000000000001
tp2300
a(S'AXAS\n'
p2301
F1.4100000000000001
tp2302
a(S'XBKS\n'
p2303
F1.42
tp2304
a(S'WILN\n'
p2305
F1.4200000000000008
tp2306
a(S'PLUG\n'
p2307
F1.43
tp2308
a(S'RFIL\n'
p2309
F1.4300000000000002
tp2310
a(S'DSGX\n'
p2311
F1.4300000000000006
tp2312
a(S'EPHC\n'
p2313
F1.4399999999999977
tp2314
a(S'GROW\n'
p2315
F1.4399999999999995
tp2316
a(S'WPCS\n'
p2317
F1.44
tp2318
a(S'ELGX\n'
p2319
F1.4499999999999993
tp2320
a(S'PRFT\n'
p2321
F1.4499999999999993
tp2322
a(S'SHIP\n'
p2323
F1.46
tp2324
a(S'SORL\n'
p2325
F1.4600000000000002
tp2326
a(S'AIMC\n'
p2327
F1.4600000000000009
tp2328
a(S'GOLD\n'
p2329
F1.4699999999999989
tp2330
a(S'SRCE\n'
p2331
F1.4699999999999989
tp2332
a(S'SIMG\n'
p2333
F1.4699999999999998
tp2334
a(S'MDH\n'
p2335
F1.4699999999999998
tp2336
a(S'ATAX\n'
p2337
F1.4699999999999998
tp2338
a(S'YHOO\n'
p2339
F1.4700000000000006
tp2340
a(S'LIVE\n'
p2341
F1.48
tp2342
a(S'YTEC\n'
p2343
F1.48
tp2344
a(S'ITRN\n'
p2345
F1.4800000000000004
tp2346
a(S'XTXI\n'
p2347
F1.4800000000000004
tp2348
a(S'STLY\n'
p2349
F1.4900000000000002
tp2350
a(S'CRDS\n'
p2351
F1.4900000000000002
tp2352
a(S'FCFC\n'
p2353
F1.4999999999999991
tp2354
a(S'CHW\n'
p2355
F1.5
tp2356
a(S'PNNT\n'
p2357
F1.5
tp2358
a(S'CHY\n'
p2359
F1.5
tp2360
a(S'VELT\n'
p2361
F1.5
tp2362
a(S'GLBS\n'
p2363
F1.5
tp2364
a(S'BPFH\n'
p2365
F1.509999999999999
tp2366
a(S'CWST\n'
p2367
F1.5099999999999998
tp2368
a(S'PBHC\n'
p2369
F1.5099999999999998
tp2370
a(S'CYBI\n'
p2371
F1.5099999999999998
tp2372
a(S'CSBK\n'
p2373
F1.5099999999999998
tp2374
a(S'BAGL\n'
p2375
F1.5199999999999996
tp2376
a(S'CBAN\n'
p2377
F1.52
tp2378
a(S'OPAY\n'
p2379
F1.52
tp2380
a(S'MBND\n'
p2381
F1.52
tp2382
a(S'SHOR\n'
p2383
F1.5200000000000005
tp2384
a(S'RTEC\n'
p2385
F1.5200000000000014
tp2386
a(S'SOMH\n'
p2387
F1.5299999999999994
tp2388
a(S'YAVY\n'
p2389
F1.53
tp2390
a(S'TFCO\n'
p2391
F1.54
tp2392
a(S'DCIX\n'
p2393
F1.54
tp2394
a(S'HMNF\n'
p2395
F1.54
tp2396
a(S'NHTB\n'
p2397
F1.540000000000001
tp2398
a(S'CCUR\n'
p2399
F1.5499999999999994
tp2400
a(S'SAAS\n'
p2401
F1.5499999999999998
tp2402
a(S'SMBC\n'
p2403
F1.5500000000000007
tp2404
a(S'VVUS\n'
p2405
F1.5500000000000007
tp2406
a(S'CGNX\n'
p2407
F1.5500000000000043
tp2408
a(S'IMKTA\n'
p2409
F1.5599999999999987
tp2410
a(S'SMTC\n'
p2411
F1.5599999999999987
tp2412
a(S'BELFB\n'
p2413
F1.5599999999999987
tp2414
a(S'PCCC\n'
p2415
F1.5599999999999987
tp2416
a(S'IRET\n'
p2417
F1.5599999999999996
tp2418
a(S'RDI\n'
p2419
F1.5599999999999996
tp2420
a(S'SSFN\n'
p2421
F1.5599999999999996
tp2422
a(S'PRTS\n'
p2423
F1.56
tp2424
a(S'FOLD\n'
p2425
F1.5600000000000005
tp2426
a(S'RRST\n'
p2427
F1.5600000000000005
tp2428
a(S'TORM\n'
p2429
F1.5600000000000005
tp2430
a(S'UNB\n'
p2431
F1.5600000000000023
tp2432
a(S'TSBK\n'
p2433
F1.5699999999999994
tp2434
a(S'ETFC\n'
p2435
F1.5700000000000003
tp2436
a(S'NNBR\n'
p2437
F1.5700000000000003
tp2438
a(S'AFFX\n'
p2439
F1.5700000000000003
tp2440
a(S'UCBI\n'
p2441
F1.5700000000000012
tp2442
a(S'NWLI\n'
p2443
F1.5700000000000216
tp2444
a(S'CCMP\n'
p2445
F1.5799999999999983
tp2446
a(S'DCTH\n'
p2447
F1.5799999999999998
tp2448
a(S'HCCI\n'
p2449
F1.58
tp2450
a(S'NVTL\n'
p2451
F1.58
tp2452
a(S'SVNT\n'
p2453
F1.58
tp2454
a(S'TTMI\n'
p2455
F1.58
tp2456
a(S'TRMK\n'
p2457
F1.5899999999999999
tp2458
a(S'CHOP\n'
p2459
F1.59
tp2460
a(S'FSBK\n'
p2461
F1.5999999999999996
tp2462
a(S'CIEN\n'
p2463
F1.5999999999999996
tp2464
a(S'SEV\n'
p2465
F1.5999999999999996
tp2466
a(S'WAVX\n'
p2467
F1.5999999999999999
tp2468
a(S'LTON\n'
p2469
F1.6
tp2470
a(S'FLML\n'
p2471
F1.6
tp2472
a(S'THRD\n'
p2473
F1.6000000000000014
tp2474
a(S'ACOR\n'
p2475
F1.6099999999999994
tp2476
a(S'PETS\n'
p2477
F1.6099999999999994
tp2478
a(S'MBTF\n'
p2479
F1.6099999999999999
tp2480
a(S'SLP\n'
p2481
F1.6100000000000003
tp2482
a(S'KLIC\n'
p2483
F1.6199999999999992
tp2484
a(S'DYAX\n'
p2485
F1.6199999999999999
tp2486
a(S'RGEN\n'
p2487
F1.6200000000000006
tp2488
a(S'IIIN\n'
p2489
F1.629999999999999
tp2490
a(S'BGCP\n'
p2491
F1.63
tp2492
a(S'CORT\n'
p2493
F1.63
tp2494
a(S'MGPI\n'
p2495
F1.6300000000000003
tp2496
a(S'SAFM\n'
p2497
F1.6300000000000026
tp2498
a(S'STNR\n'
p2499
F1.6300000000000026
tp2500
a(S'CDNS\n'
p2501
F1.6399999999999988
tp2502
a(S'PKBK\n'
p2503
F1.6399999999999997
tp2504
a(S'HTHT\n'
p2505
F1.6400000000000006
tp2506
a(S'SYMC\n'
p2507
F1.6400000000000006
tp2508
a(S'CVCO\n'
p2509
F1.6499999999999986
tp2510
a(S'MNRO\n'
p2511
F1.6499999999999986
tp2512
a(S'NXST\n'
p2513
F1.6500000000000004
tp2514
a(S'HOGS\n'
p2515
F1.6500000000000004
tp2516
a(S'FORM\n'
p2517
F1.6500000000000004
tp2518
a(S'LPLA\n'
p2519
F1.6600000000000001
tp2520
a(S'NKBP\n'
p2521
F1.6600000000000001
tp2522
a(S'DIAL\n'
p2523
F1.6600000000000001
tp2524
a(S'SGOC\n'
p2525
F1.67
tp2526
a(S'RELL\n'
p2527
F1.67
tp2528
a(S'INPH\n'
p2529
F1.67
tp2530
a(S'PNTR\n'
p2531
F1.6700000000000004
tp2532
a(S'ISHG\n'
p2533
F1.6700000000000017
tp2534
a(S'TRAK\n'
p2535
F1.6799999999999997
tp2536
a(S'BIOC\n'
p2537
F1.6799999999999997
tp2538
a(S'UEPS\n'
p2539
F1.6799999999999997
tp2540
a(S'GFED\n'
p2541
F1.6900000000000004
tp2542
a(S'DUSA\n'
p2543
F1.6900000000000004
tp2544
a(S'DFZ\n'
p2545
F1.6900000000000013
tp2546
a(S'WCRX\n'
p2547
F1.6900000000000013
tp2548
a(S'ATVI\n'
p2549
F1.6999999999999993
tp2550
a(S'PWX\n'
p2551
F1.6999999999999993
tp2552
a(S'CBRX\n'
p2553
F1.6999999999999997
tp2554
a(S'PWAV\n'
p2555
F1.7000000000000002
tp2556
a(S'LNBB\n'
p2557
F1.7000000000000002
tp2558
a(S'WTBA\n'
p2559
F1.700000000000001
tp2560
a(S'WYNN\n'
p2561
F1.7000000000000028
tp2562
a(S'MFRI\n'
p2563
F1.71
tp2564
a(S'BWINB\n'
p2565
F1.7100000000000009
tp2566
a(S'NTGR\n'
p2567
F1.7100000000000009
tp2568
a(S'NVDA\n'
p2569
F1.7100000000000009
tp2570
a(S'NATI\n'
p2571
F1.7199999999999989
tp2572
a(S'DGLY\n'
p2573
F1.7199999999999998
tp2574
a(S'ORBK\n'
p2575
F1.7200000000000006
tp2576
a(S'LBAI\n'
p2577
F1.7200000000000006
tp2578
a(S'IQNT\n'
p2579
F1.7200000000000006
tp2580
a(S'AXTI\n'
p2581
F1.7300000000000004
tp2582
a(S'IBOC\n'
p2583
F1.7300000000000004
tp2584
a(S'ARRY\n'
p2585
F1.7399999999999998
tp2586
a(S'COHU\n'
p2587
F1.7400000000000002
tp2588
a(S'STEL\n'
p2589
F1.7400000000000002
tp2590
a(S'ROIC\n'
p2591
F1.7400000000000002
tp2592
a(S'WWAY\n'
p2593
F1.7400000000000002
tp2594
a(S'FFCO\n'
p2595
F1.7400000000000002
tp2596
a(S'MEAD\n'
p2597
F1.7400000000000002
tp2598
a(S'BRID\n'
p2599
F1.7499999999999991
tp2600
a(S'FMNB\n'
p2601
F1.75
tp2602
a(S'EBIX\n'
p2603
F1.75
tp2604
a(S'OBAS\n'
p2605
F1.75
tp2606
a(S'GKNT\n'
p2607
F1.75
tp2608
a(S'TTGT\n'
p2609
F1.75
tp2610
a(S'OPNT\n'
p2611
F1.759999999999998
tp2612
a(S'KINS\n'
p2613
F1.7599999999999998
tp2614
a(S'RIGL\n'
p2615
F1.7599999999999998
tp2616
a(S'TAXI\n'
p2617
F1.7599999999999998
tp2618
a(S'ESEA\n'
p2619
F1.76
tp2620
a(S'MGYR\n'
p2621
F1.7600000000000002
tp2622
a(S'BSQR\n'
p2623
F1.7699999999999996
tp2624
a(S'CA\n'
p2625
F1.7699999999999996
tp2626
a(S'VMBS\n'
p2627
F1.7700000000000031
tp2628
a(S'IDSA\n'
p2629
F1.7800000000000002
tp2630
a(S'SONA\n'
p2631
F1.7800000000000002
tp2632
a(S'ZBRA\n'
p2633
F1.7800000000000011
tp2634
a(S'GBDC\n'
p2635
F1.790000000000001
tp2636
a(S'HEOP\n'
p2637
F1.7999999999999998
tp2638
a(S'CLRX\n'
p2639
F1.7999999999999998
tp2640
a(S'PBIB\n'
p2641
F1.8
tp2642
a(S'BWEN\n'
p2643
F1.8000000000000003
tp2644
a(S'AREX\n'
p2645
F1.8000000000000007
tp2646
a(S'EAGLU\n'
p2647
F1.8000000000000007
tp2648
a(S'LLTC\n'
p2649
F1.8000000000000007
tp2650
a(S'PBSK\n'
p2651
F1.8099999999999987
tp2652
a(S'FBSS\n'
p2653
F1.8099999999999987
tp2654
a(S'GLRE\n'
p2655
F1.8099999999999987
tp2656
a(S'QQEW\n'
p2657
F1.8099999999999987
tp2658
a(S'CSPI\n'
p2659
F1.81
tp2660
a(S'QCLN\n'
p2661
F1.8199999999999985
tp2662
a(S'APRI\n'
p2663
F1.8200000000000003
tp2664
a(S'KELYB\n'
p2665
F1.8200000000000003
tp2666
a(S'USTR\n'
p2667
F1.8299999999999983
tp2668
a(S'CNBC\n'
p2669
F1.83
tp2670
a(S'FSC\n'
p2671
F1.83
tp2672
a(S'CNSL\n'
p2673
F1.83
tp2674
a(S'ESIO\n'
p2675
F1.83
tp2676
a(S'BSRR\n'
p2677
F1.83
tp2678
a(S'TCBK\n'
p2679
F1.83
tp2680
a(S'CERP\n'
p2681
F1.8399999999999999
tp2682
a(S'FACE\n'
p2683
F1.8400000000000003
tp2684
a(S'CSUN\n'
p2685
F1.8400000000000003
tp2686
a(S'PWND\n'
p2687
F1.8400000000000007
tp2688
a(S'STBZ\n'
p2689
F1.8499999999999996
tp2690
a(S'PAMT\n'
p2691
F1.8499999999999996
tp2692
a(S'TISA\n'
p2693
F1.85
tp2694
a(S'ADRD\n'
p2695
F1.8500000000000014
tp2696
a(S'DGICB\n'
p2697
F1.8500000000000014
tp2698
a(S'CADC\n'
p2699
F1.86
tp2700
a(S'HTBK\n'
p2701
F1.8600000000000003
tp2702
a(S'FCAP\n'
p2703
F1.860000000000003
tp2704
a(S'COBZ\n'
p2705
F1.8699999999999992
tp2706
a(S'MSPD\n'
p2707
F1.87
tp2708
a(S'UNXL\n'
p2709
F1.87
tp2710
a(S'FRED\n'
p2711
F1.870000000000001
tp2712
a(S'SAVE\n'
p2713
F1.879999999999999
tp2714
a(S'RUTH\n'
p2715
F1.88
tp2716
a(S'AGEN\n'
p2717
F1.8800000000000003
tp2718
a(S'VNET\n'
p2719
F1.9000000000000004
tp2720
a(S'SNAK\n'
p2721
F1.9000000000000004
tp2722
a(S'SIBC\n'
p2723
F1.9000000000000004
tp2724
a(S'MYRG\n'
p2725
F1.9100000000000001
tp2726
a(S'CKSW\n'
p2727
F1.9100000000000001
tp2728
a(S'VSEC\n'
p2729
F1.9100000000000001
tp2730
a(S'ORIG\n'
p2731
F1.910000000000002
tp2732
a(S'AIXG\n'
p2733
F1.92
tp2734
a(S'DGII\n'
p2735
F1.92
tp2736
a(S'CBMX\n'
p2737
F1.92
tp2738
a(S'DBLEP\n'
p2739
F1.9299999999999997
tp2740
a(S'CITZ\n'
p2741
F1.9299999999999997
tp2742
a(S'HBOS\n'
p2743
F1.9299999999999997
tp2744
a(S'BKSC\n'
p2745
F1.9399999999999995
tp2746
a(S'NCMI\n'
p2747
F1.9399999999999995
tp2748
a(S'REXI\n'
p2749
F1.9400000000000004
tp2750
a(S'SIFI\n'
p2751
F1.9400000000000013
tp2752
a(S'IBCP\n'
p2753
F1.95
tp2754
a(S'FLDM\n'
p2755
F1.950000000000001
tp2756
a(S'STRS\n'
p2757
F1.950000000000001
tp2758
a(S'MCHP\n'
p2759
F1.9500000000000028
tp2760
a(S'HDSN\n'
p2761
F1.96
tp2762
a(S'RMCF\n'
p2763
F1.9600000000000009
tp2764
a(S'PSCT\n'
p2765
F1.9699999999999989
tp2766
a(S'PLBC\n'
p2767
F1.9799999999999995
tp2768
a(S'NTWK\n'
p2769
F1.9900000000000002
tp2770
a(S'UBCP\n'
p2771
F1.9900000000000002
tp2772
a(S'USMO\n'
p2773
F1.9900000000000002
tp2774
a(S'HITK\n'
p2775
F1.990000000000002
tp2776
a(S'ASBC\n'
p2777
F2.0
tp2778
a(S'FNLC\n'
p2779
F2.0
tp2780
a(S'MSW\n'
p2781
F2.0
tp2782
a(S'FIZZ\n'
p2783
F2.0000000000000018
tp2784
a(S'SAPE\n'
p2785
F2.01
tp2786
a(S'CUNB\n'
p2787
F2.01
tp2788
a(S'CRMB\n'
p2789
F2.01
tp2790
a(S'MELA\n'
p2791
F2.01
tp2792
a(S'PSOF\n'
p2793
F2.0100000000000002
tp2794
a(S'IRETP\n'
p2795
F2.0100000000000016
tp2796
a(S'VGIT\n'
p2797
F2.010000000000005
tp2798
a(S'IGOV\n'
p2799
F2.019999999999996
tp2800
a(S'OPTR\n'
p2801
F2.0199999999999996
tp2802
a(S'EWBC\n'
p2803
F2.0199999999999996
tp2804
a(S'SSRX\n'
p2805
F2.0200000000000014
tp2806
a(S'ADRU\n'
p2807
F2.0299999999999976
tp2808
a(S'TSRX\n'
p2809
F2.0300000000000002
tp2810
a(S'FTEK\n'
p2811
F2.0300000000000002
tp2812
a(S'MNRK\n'
p2813
F2.0300000000000002
tp2814
a(S'GCOM\n'
p2815
F2.030000000000001
tp2816
a(S'MSBF\n'
p2817
F2.04
tp2818
a(S'SOFO\n'
p2819
F2.05
tp2820
a(S'MGCD\n'
p2821
F2.05
tp2822
a(S'MIPS\n'
p2823
F2.0500000000000007
tp2824
a(S'Z\n'
p2825
F2.0599999999999987
tp2826
a(S'NFBK\n'
p2827
F2.0599999999999987
tp2828
a(S'DFR\n'
p2829
F2.0600000000000005
tp2830
a(S'MARK\n'
p2831
F2.0700000000000003
tp2832
a(S'FULL\n'
p2833
F2.089999999999999
tp2834
a(S'AFOP\n'
p2835
F2.09
tp2836
a(S'BRKS\n'
p2837
F2.09
tp2838
a(S'RNET\n'
p2839
F2.09
tp2840
a(S'SLTC\n'
p2841
F2.1
tp2842
a(S'VNDA\n'
p2843
F2.1
tp2844
a(S'DWA\n'
p2845
F2.1000000000000014
tp2846
a(S'CHKE\n'
p2847
F2.1000000000000014
tp2848
a(S'AMSF\n'
p2849
F2.1099999999999994
tp2850
a(S'BBOX\n'
p2851
F2.1099999999999994
tp2852
a(S'DAIO\n'
p2853
F2.11
tp2854
a(S'MDCI\n'
p2855
F2.1100000000000003
tp2856
a(S'CSQ\n'
p2857
F2.12
tp2858
a(S'INTC\n'
p2859
F2.129999999999999
tp2860
a(S'TCCO\n'
p2861
F2.13
tp2862
a(S'HFBC\n'
p2863
F2.13
tp2864
a(S'BOTJ\n'
p2865
F2.13
tp2866
a(S'HAS\n'
p2867
F2.1300000000000026
tp2868
a(S'AMCF\n'
p2869
F2.1399999999999997
tp2870
a(S'WSCI\n'
p2871
F2.1399999999999997
tp2872
a(S'AACC\n'
p2873
F2.14
tp2874
a(S'FRP\n'
p2875
F2.1499999999999995
tp2876
a(S'LNET\n'
p2877
F2.15
tp2878
a(S'PFIN\n'
p2879
F2.1500000000000004
tp2880
a(S'LTRE\n'
p2881
F2.1500000000000004
tp2882
a(S'INFN\n'
p2883
F2.16
tp2884
a(S'EEFT\n'
p2885
F2.16
tp2886
a(S'PULB\n'
p2887
F2.160000000000001
tp2888
a(S'WETF\n'
p2889
F2.17
tp2890
a(S'PSEC\n'
p2891
F2.1799999999999997
tp2892
a(S'SURG\n'
p2893
F2.1799999999999997
tp2894
a(S'MNTG\n'
p2895
F2.18
tp2896
a(S'ATX\n'
p2897
F2.1899999999999995
tp2898
a(S'BKCC\n'
p2899
F2.1900000000000004
tp2900
a(S'TICC\n'
p2901
F2.1900000000000004
tp2902
a(S'NATL\n'
p2903
F2.1900000000000013
tp2904
a(S'SHEN\n'
p2905
F2.1900000000000013
tp2906
a(S'JCS\n'
p2907
F2.200000000000001
tp2908
a(S'CPLP\n'
p2909
F2.21
tp2910
a(S'SIGM\n'
p2911
F2.21
tp2912
a(S'ZAZA\n'
p2913
F2.21
tp2914
a(S'SBSI\n'
p2915
F2.210000000000001
tp2916
a(S'CBOU\n'
p2917
F2.210000000000001
tp2918
a(S'ZEUS\n'
p2919
F2.219999999999999
tp2920
a(S'PACB\n'
p2921
F2.22
tp2922
a(S'EFII\n'
p2923
F2.2200000000000006
tp2924
a(S'BLMT\n'
p2925
F2.2200000000000006
tp2926
a(S'FCZA\n'
p2927
F2.23
tp2928
a(S'ENG\n'
p2929
F2.23
tp2930
a(S'WEBM\n'
p2931
F2.23
tp2932
a(S'HOTT\n'
p2933
F2.2300000000000004
tp2934
a(S'LKFN\n'
p2935
F2.2399999999999984
tp2936
a(S'WLDN\n'
p2937
F2.24
tp2938
a(S'STRL\n'
p2939
F2.24
tp2940
a(S'SABA\n'
p2941
F2.24
tp2942
a(S'FITBP\n'
p2943
F2.25
tp2944
a(S'MFNC\n'
p2945
F2.25
tp2946
a(S'CYCC\n'
p2947
F2.25
tp2948
a(S'SFST\n'
p2949
F2.26
tp2950
a(S'CNYD\n'
p2951
F2.26
tp2952
a(S'FIBK\n'
p2953
F2.26
tp2954
a(S'SGMO\n'
p2955
F2.2699999999999996
tp2956
a(S'LSCC\n'
p2957
F2.27
tp2958
a(S'TGA\n'
p2959
F2.2700000000000014
tp2960
a(S'UNIS\n'
p2961
F2.28
tp2962
a(S'NANO\n'
p2963
F2.289999999999999
tp2964
a(S'CSCD\n'
p2965
F2.2899999999999996
tp2966
a(S'IFSIA\n'
p2967
F2.299999999999999
tp2968
a(S'HRZN\n'
p2969
F2.3000000000000007
tp2970
a(S'HCOM\n'
p2971
F2.3000000000000007
tp2972
a(S'FBMS\n'
p2973
F2.3099999999999996
tp2974
a(S'MSON\n'
p2975
F2.31
tp2976
a(S'PSTR\n'
p2977
F2.31
tp2978
a(S'TYPE\n'
p2979
F2.3100000000000005
tp2980
a(S'ICLN\n'
p2981
F2.3100000000000005
tp2982
a(S'HURC\n'
p2983
F2.3200000000000003
tp2984
a(S'PDLI\n'
p2985
F2.33
tp2986
a(S'FCCY\n'
p2987
F2.33
tp2988
a(S'PGTI\n'
p2989
F2.33
tp2990
a(S'PRGX\n'
p2991
F2.33
tp2992
a(S'ACCL\n'
p2993
F2.33
tp2994
a(S'ICON\n'
p2995
F2.330000000000002
tp2996
a(S'AROW\n'
p2997
F2.34
tp2998
a(S'NPBCO\n'
p2999
F2.34
tp3000
a(S'SASR\n'
p3001
F2.34
tp3002
a(S'UVSP\n'
p3003
F2.34
tp3004
a(S'PZZI\n'
p3005
F2.3499999999999996
tp3006
a(S'OCLR\n'
p3007
F2.35
tp3008
a(S'TESO\n'
p3009
F2.3500000000000014
tp3010
a(S'NEWS\n'
p3011
F2.3599999999999994
tp3012
a(S'CZNC\n'
p3013
F2.3599999999999994
tp3014
a(S'HOTR\n'
p3015
F2.36
tp3016
a(S'ADUS\n'
p3017
F2.36
tp3018
a(S'MNTA\n'
p3019
F2.370000000000001
tp3020
a(S'JCOM\n'
p3021
F2.370000000000001
tp3022
a(S'TECD\n'
p3023
F2.3900000000000006
tp3024
a(S'HBCP\n'
p3025
F2.3999999999999986
tp3026
a(S'CENT\n'
p3027
F2.41
tp3028
a(S'IROQ\n'
p3029
F2.41
tp3030
a(S'KLAC\n'
p3031
F2.4100000000000037
tp3032
a(S'VALU\n'
p3033
F2.42
tp3034
a(S'PRSC\n'
p3035
F2.42
tp3036
a(S'FFNW\n'
p3037
F2.42
tp3038
a(S'EGLE\n'
p3039
F2.4200000000000004
tp3040
a(S'MBRG\n'
p3041
F2.4200000000000017
tp3042
a(S'CRME\n'
p3043
F2.4299999999999997
tp3044
a(S'SCOK\n'
p3045
F2.43
tp3046
a(S'COOL\n'
p3047
F2.43
tp3048
a(S'PSTL\n'
p3049
F2.4300000000000015
tp3050
a(S'SMMF\n'
p3051
F2.4399999999999995
tp3052
a(S'ORIT\n'
p3053
F2.4399999999999995
tp3054
a(S'PERI\n'
p3055
F2.4399999999999995
tp3056
a(S'VICR\n'
p3057
F2.4399999999999995
tp3058
a(S'OREX\n'
p3059
F2.44
tp3060
a(S'VIVO\n'
p3061
F2.4499999999999993
tp3062
a(S'CENTA\n'
p3063
F2.4499999999999993
tp3064
a(S'THER\n'
p3065
F2.4499999999999997
tp3066
a(S'SNMX\n'
p3067
F2.45
tp3068
a(S'GAI\n'
p3069
F2.45
tp3070
a(S'LEDS\n'
p3071
F2.45
tp3072
a(S'ZIGO\n'
p3073
F2.450000000000001
tp3074
a(S'ISCA\n'
p3075
F2.450000000000003
tp3076
a(S'PENX\n'
p3077
F2.46
tp3078
a(S'RSYS\n'
p3079
F2.46
tp3080
a(S'SIVBO\n'
p3081
F2.469999999999999
tp3082
a(S'VXUS\n'
p3083
F2.479999999999997
tp3084
a(S'QNST\n'
p3085
F2.4799999999999995
tp3086
a(S'WBCO\n'
p3087
F2.4800000000000004
tp3088
a(S'CFNB\n'
p3089
F2.4800000000000004
tp3090
a(S'SNSS\n'
p3091
F2.4800000000000004
tp3092
a(S'ROCM\n'
p3093
F2.4800000000000004
tp3094
a(S'PODD\n'
p3095
F2.4899999999999984
tp3096
a(S'IDIX\n'
p3097
F2.4899999999999998
tp3098
a(S'WLFC\n'
p3099
F2.49
tp3100
a(S'ACNB\n'
p3101
F2.5
tp3102
a(S'FSRV\n'
p3103
F2.5
tp3104
a(S'ALLB\n'
p3105
F2.5
tp3106
a(S'HOLI\n'
p3107
F2.509999999999999
tp3108
a(S'SPLS\n'
p3109
F2.51
tp3110
a(S'XNPT\n'
p3111
F2.51
tp3112
a(S'DRIV\n'
p3113
F2.51
tp3114
a(S'SIGI\n'
p3115
F2.5199999999999996
tp3116
a(S'MRGE\n'
p3117
F2.52
tp3118
a(S'MKSI\n'
p3119
F2.5299999999999976
tp3120
a(S'BPOP\n'
p3121
F2.539999999999999
tp3122
a(S'ONCY\n'
p3123
F2.54
tp3124
a(S'LIME\n'
p3125
F2.54
tp3126
a(S'FCCO\n'
p3127
F2.540000000000001
tp3128
a(S'SPTN\n'
p3129
F2.549999999999999
tp3130
a(S'TUES\n'
p3131
F2.5500000000000003
tp3132
a(S'SYUT\n'
p3133
F2.5600000000000005
tp3134
a(S'VIA\n'
p3135
F2.5600000000000023
tp3136
a(S'ACUR\n'
p3137
F2.5699999999999994
tp3138
a(S'CDXS\n'
p3139
F2.57
tp3140
a(S'CFBK\n'
p3141
F2.57
tp3142
a(S'NRIM\n'
p3143
F2.5700000000000003
tp3144
a(S'UCFC\n'
p3145
F2.5700000000000003
tp3146
a(S'SLRC\n'
p3147
F2.5700000000000003
tp3148
a(S'HWAY\n'
p3149
F2.5700000000000003
tp3150
a(S'CRWS\n'
p3151
F2.5700000000000003
tp3152
a(S'ESGR\n'
p3153
F2.5799999999999983
tp3154
a(S'RCKY\n'
p3155
F2.58
tp3156
a(S'TEAR\n'
p3157
F2.58
tp3158
a(S'CPSS\n'
p3159
F2.59
tp3160
a(S'OSBCP\n'
p3161
F2.59
tp3162
a(S'EGHT\n'
p3163
F2.5999999999999996
tp3164
a(S'SPRT\n'
p3165
F2.6
tp3166
a(S'MOLXA\n'
p3167
F2.6000000000000014
tp3168
a(S'FSIN\n'
p3169
F2.6099999999999994
tp3170
a(S'IEP\n'
p3171
F2.6099999999999994
tp3172
a(S'IVAC\n'
p3173
F2.6099999999999994
tp3174
a(S'ABCD\n'
p3175
F2.6100000000000003
tp3176
a(S'PVTBP\n'
p3177
F2.629999999999999
tp3178
a(S'THFF\n'
p3179
F2.629999999999999
tp3180
a(S'HMIN\n'
p3181
F2.629999999999999
tp3182
a(S'PVSW\n'
p3183
F2.629999999999999
tp3184
a(S'PSDV\n'
p3185
F2.63
tp3186
a(S'MBLX\n'
p3187
F2.63
tp3188
a(S'GPRE\n'
p3189
F2.63
tp3190
a(S'MPB\n'
p3191
F2.630000000000001
tp3192
a(S'RIVR\n'
p3193
F2.639999999999999
tp3194
a(S'KEQU\n'
p3195
F2.6500000000000004
tp3196
a(S'CSII\n'
p3197
F2.66
tp3198
a(S'ONFC\n'
p3199
F2.67
tp3200
a(S'FITB\n'
p3201
F2.6799999999999997
tp3202
a(S'EPIQ\n'
p3203
F2.6799999999999997
tp3204
a(S'RLOC\n'
p3205
F2.6899999999999995
tp3206
a(S'KCAP\n'
p3207
F2.6999999999999993
tp3208
a(S'IPCC\n'
p3209
F2.700000000000003
tp3210
a(S'BRCM\n'
p3211
F2.7099999999999973
tp3212
a(S'FHCO\n'
p3213
F2.71
tp3214
a(S'MCHX\n'
p3215
F2.71
tp3216
a(S'AERL\n'
p3217
F2.71
tp3218
a(S'THLD\n'
p3219
F2.71
tp3220
a(S'MCRS\n'
p3221
F2.710000000000001
tp3222
a(S'MFLR\n'
p3223
F2.710000000000001
tp3224
a(S'RSTI\n'
p3225
F2.719999999999999
tp3226
a(S'JOBS\n'
p3227
F2.719999999999999
tp3228
a(S'VCBI\n'
p3229
F2.7199999999999998
tp3230
a(S'PMD\n'
p3231
F2.7299999999999986
tp3232
a(S'CSFL\n'
p3233
F2.7300000000000004
tp3234
a(S'TASR\n'
p3235
F2.74
tp3236
a(S'CACH\n'
p3237
F2.74
tp3238
a(S'GBCI\n'
p3239
F2.74
tp3240
a(S'GOODP\n'
p3241
F2.740000000000002
tp3242
a(S'SWSH\n'
p3243
F2.7499999999999996
tp3244
a(S'WSBC\n'
p3245
F2.75
tp3246
a(S'MDCO\n'
p3247
F2.759999999999998
tp3248
a(S'GLDD\n'
p3249
F2.759999999999999
tp3250
a(S'ARWR\n'
p3251
F2.76
tp3252
a(S'CHTP\n'
p3253
F2.76
tp3254
a(S'XLNX\n'
p3255
F2.7699999999999996
tp3256
a(S'MOLX\n'
p3257
F2.7699999999999996
tp3258
a(S'OMPI\n'
p3259
F2.7799999999999994
tp3260
a(S'MNTX\n'
p3261
F2.7799999999999994
tp3262
a(S'FISI\n'
p3263
F2.7799999999999994
tp3264
a(S'RFMD\n'
p3265
F2.7800000000000002
tp3266
a(S'HELE\n'
p3267
F2.789999999999999
tp3268
a(S'FCFS\n'
p3269
F2.789999999999999
tp3270
a(S'AMRB\n'
p3271
F2.79
tp3272
a(S'ECPG\n'
p3273
F2.8099999999999987
tp3274
a(S'DCOM\n'
p3275
F2.8099999999999987
tp3276
a(S'BBCN\n'
p3277
F2.8099999999999987
tp3278
a(S'THRM\n'
p3279
F2.8100000000000005
tp3280
a(S'HWBK\n'
p3281
F2.8100000000000005
tp3282
a(S'CARB\n'
p3283
F2.8100000000000005
tp3284
a(S'ANIK\n'
p3285
F2.8199999999999985
tp3286
a(S'TKMR\n'
p3287
F2.82
tp3288
a(S'ASBI\n'
p3289
F2.82
tp3290
a(S'NAUH\n'
p3291
F2.8200000000000003
tp3292
a(S'KIRK\n'
p3293
F2.8200000000000003
tp3294
a(S'AFSI\n'
p3295
F2.8200000000000003
tp3296
a(S'CREE\n'
p3297
F2.8200000000000003
tp3298
a(S'FURX\n'
p3299
F2.8299999999999983
tp3300
a(S'ELOS\n'
p3301
F2.83
tp3302
a(S'BBRG\n'
p3303
F2.830000000000002
tp3304
a(S'GOODO\n'
p3305
F2.84
tp3306
a(S'STND\n'
p3307
F2.84
tp3308
a(S'ASIA\n'
p3309
F2.8400000000000007
tp3310
a(S'EXAR\n'
p3311
F2.8499999999999996
tp3312
a(S'NUTR\n'
p3313
F2.8499999999999996
tp3314
a(S'SZYM\n'
p3315
F2.8500000000000005
tp3316
a(S'TBBK\n'
p3317
F2.8599999999999994
tp3318
a(S'DSCI\n'
p3319
F2.8599999999999994
tp3320
a(S'DRWI\n'
p3321
F2.86
tp3322
a(S'TSPT\n'
p3323
F2.8600000000000003
tp3324
a(S'SONC\n'
p3325
F2.8600000000000003
tp3326
a(S'ELON\n'
p3327
F2.87
tp3328
a(S'VIAS\n'
p3329
F2.870000000000001
tp3330
a(S'FSYS\n'
p3331
F2.879999999999999
tp3332
a(S'SPPRP\n'
p3333
F2.879999999999999
tp3334
a(S'ATRC\n'
p3335
F2.88
tp3336
a(S'GOOD\n'
p3337
F2.880000000000001
tp3338
a(S'ICFI\n'
p3339
F2.8800000000000026
tp3340
a(S'CLCT\n'
p3341
F2.889999999999999
tp3342
a(S'CCNE\n'
p3343
F2.889999999999999
tp3344
a(S'BGMD\n'
p3345
F2.8899999999999997
tp3346
a(S'HMPR\n'
p3347
F2.8899999999999997
tp3348
a(S'GNMK\n'
p3349
F2.8899999999999997
tp3350
a(S'AMNB\n'
p3351
F2.8900000000000006
tp3352
a(S'BBEP\n'
p3353
F2.8900000000000006
tp3354
a(S'KONA\n'
p3355
F2.8900000000000006
tp3356
a(S'HCBK\n'
p3357
F2.9000000000000004
tp3358
a(S'HARL\n'
p3359
F2.900000000000002
tp3360
a(S'PKOH\n'
p3361
F2.919999999999998
tp3362
a(S'RDA\n'
p3363
F2.92
tp3364
a(S'MOBI\n'
p3365
F2.92
tp3366
a(S'CRESY\n'
p3367
F2.9299999999999997
tp3368
a(S'SIFY\n'
p3369
F2.9299999999999997
tp3370
a(S'CLDX\n'
p3371
F2.9299999999999997
tp3372
a(S'ALSK\n'
p3373
F2.93
tp3374
a(S'MVIS\n'
p3375
F2.93
tp3376
a(S'CVGI\n'
p3377
F2.9399999999999995
tp3378
a(S'DGAS\n'
p3379
F2.9399999999999995
tp3380
a(S'CENX\n'
p3381
F2.9400000000000004
tp3382
a(S'IXYS\n'
p3383
F2.9499999999999993
tp3384
a(S'SOCB\n'
p3385
F2.96
tp3386
a(S'AEGN\n'
p3387
F2.969999999999999
tp3388
a(S'AMSG\n'
p3389
F2.969999999999999
tp3390
a(S'EVOL\n'
p3391
F2.97
tp3392
a(S'FUNC\n'
p3393
F2.97
tp3394
a(S'LPHI\n'
p3395
F2.9799999999999995
tp3396
a(S'DVOX\n'
p3397
F2.98
tp3398
a(S'POZN\n'
p3399
F2.98
tp3400
a(S'LEAP\n'
p3401
F2.9800000000000004
tp3402
a(S'SPAN\n'
p3403
F2.990000000000002
tp3404
a(S'MERU\n'
p3405
F2.9999999999999996
tp3406
a(S'ARAY\n'
p3407
F3.0000000000000004
tp3408
a(S'TPGI\n'
p3409
F3.0100000000000002
tp3410
a(S'JOUT\n'
p3411
F3.0100000000000016
tp3412
a(S'GIVN\n'
p3413
F3.0199999999999996
tp3414
a(S'CVCY\n'
p3415
F3.0199999999999996
tp3416
a(S'EUFN\n'
p3417
F3.0199999999999996
tp3418
a(S'SUSQ\n'
p3419
F3.0299999999999994
tp3420
a(S'QQQX\n'
p3421
F3.0299999999999994
tp3422
a(S'WSBF\n'
p3423
F3.03
tp3424
a(S'WIBC\n'
p3425
F3.0300000000000002
tp3426
a(S'OSHC\n'
p3427
F3.039999999999999
tp3428
a(S'AONE\n'
p3429
F3.04
tp3430
a(S'TSEM\n'
p3431
F3.049999999999999
tp3432
a(S'QQXT\n'
p3433
F3.0700000000000003
tp3434
a(S'RCKB\n'
p3435
F3.0700000000000003
tp3436
a(S'GCBC\n'
p3437
F3.0700000000000003
tp3438
a(S'STRT\n'
p3439
F3.0799999999999983
tp3440
a(S'GASS\n'
p3441
F3.08
tp3442
a(S'NETC\n'
p3443
F3.08
tp3444
a(S'REXX\n'
p3445
F3.080000000000002
tp3446
a(S'FSFG\n'
p3447
F3.09
tp3448
a(S'SHFL\n'
p3449
F3.09
tp3450
a(S'CBPO\n'
p3451
F3.0999999999999996
tp3452
a(S'LION\n'
p3453
F3.0999999999999996
tp3454
a(S'OLBK\n'
p3455
F3.1000000000000005
tp3456
a(S'REIS\n'
p3457
F3.1099999999999994
tp3458
a(S'ITRI\n'
p3459
F3.1099999999999994
tp3460
a(S'UBSH\n'
p3461
F3.1099999999999994
tp3462
a(S'PERY\n'
p3463
F3.110000000000003
tp3464
a(S'EEI\n'
p3465
F3.119999999999999
tp3466
a(S'HALO\n'
p3467
F3.1400000000000006
tp3468
a(S'FSCI\n'
p3469
F3.1400000000000006
tp3470
a(S'PEOP\n'
p3471
F3.1400000000000006
tp3472
a(S'DLLR\n'
p3473
F3.1499999999999986
tp3474
a(S'DHFT\n'
p3475
F3.1500000000000004
tp3476
a(S'TXRH\n'
p3477
F3.1599999999999984
tp3478
a(S'DEER\n'
p3479
F3.17
tp3480
a(S'AMRN\n'
p3481
F3.17
tp3482
a(S'ARQL\n'
p3483
F3.1799999999999997
tp3484
a(S'BABY\n'
p3485
F3.1999999999999993
tp3486
a(S'GGAL\n'
p3487
F3.209999999999999
tp3488
a(S'AEIS\n'
p3489
F3.209999999999999
tp3490
a(S'IPXL\n'
p3491
F3.210000000000001
tp3492
a(S'IIVI\n'
p3493
F3.219999999999999
tp3494
a(S'NTSC\n'
p3495
F3.2199999999999998
tp3496
a(S'MCBI\n'
p3497
F3.2300000000000004
tp3498
a(S'JVA\n'
p3499
F3.2300000000000004
tp3500
a(S'LMNX\n'
p3501
F3.2399999999999984
tp3502
a(S'DNDN\n'
p3503
F3.24
tp3504
a(S'GMLP\n'
p3505
F3.240000000000002
tp3506
a(S'ICGE\n'
p3507
F3.249999999999999
tp3508
a(S'EMFN\n'
p3509
F3.25
tp3510
a(S'HOLX\n'
p3511
F3.25
tp3512
a(S'VPRT\n'
p3513
F3.2500000000000036
tp3514
a(S'CFFC\n'
p3515
F3.26
tp3516
a(S'SBGI\n'
p3517
F3.2699999999999996
tp3518
a(S'TIBX\n'
p3519
F3.280000000000001
tp3520
a(S'SYBT\n'
p3521
F3.280000000000001
tp3522
a(S'CMVT\n'
p3523
F3.2899999999999996
tp3524
a(S'BEBE\n'
p3525
F3.29
tp3526
a(S'ARCP\n'
p3527
F3.299999999999999
tp3528
a(S'TCRD\n'
p3529
F3.299999999999999
tp3530
a(S'NCBC\n'
p3531
F3.3
tp3532
a(S'SALM\n'
p3533
F3.3000000000000003
tp3534
a(S'RBCAA\n'
p3535
F3.3099999999999987
tp3536
a(S'FFIC\n'
p3537
F3.3099999999999987
tp3538
a(S'TBNK\n'
p3539
F3.3099999999999987
tp3540
a(S'LEDR\n'
p3541
F3.3100000000000005
tp3542
a(S'NMRX\n'
p3543
F3.3199999999999994
tp3544
a(S'CRRB\n'
p3545
F3.32
tp3546
a(S'FCBC\n'
p3547
F3.3200000000000003
tp3548
a(S'BMRC\n'
p3549
F3.3299999999999983
tp3550
a(S'TOWN\n'
p3551
F3.33
tp3552
a(S'ACWX\n'
p3553
F3.3300000000000054
tp3554
a(S'SVVC\n'
p3555
F3.34
tp3556
a(S'PMBC\n'
p3557
F3.34
tp3558
a(S'LHCG\n'
p3559
F3.349999999999998
tp3560
a(S'AMPE\n'
p3561
F3.35
tp3562
a(S'PCAR\n'
p3563
F3.3500000000000014
tp3564
a(S'WBKC\n'
p3565
F3.3599999999999994
tp3566
a(S'HFWA\n'
p3567
F3.3599999999999994
tp3568
a(S'CTWS\n'
p3569
F3.370000000000001
tp3570
a(S'CBAK\n'
p3571
F3.3800000000000003
tp3572
a(S'SHLO\n'
p3573
F3.380000000000001
tp3574
a(S'CYOU\n'
p3575
F3.4099999999999966
tp3576
a(S'USAP\n'
p3577
F3.4099999999999966
tp3578
a(S'CPHD\n'
p3579
F3.41
tp3580
a(S'FEFN\n'
p3581
F3.41
tp3582
a(S'MEAS\n'
p3583
F3.41
tp3584
a(S'EMCI\n'
p3585
F3.41
tp3586
a(S'ISIL\n'
p3587
F3.4400000000000004
tp3588
a(S'STAA\n'
p3589
F3.4400000000000004
tp3590
a(S'MSFG\n'
p3591
F3.4499999999999993
tp3592
a(S'ASRVP\n'
p3593
F3.4499999999999993
tp3594
a(S'PFLT\n'
p3595
F3.459999999999999
tp3596
a(S'CRZO\n'
p3597
F3.469999999999999
tp3598
a(S'JAXB\n'
p3599
F3.4699999999999998
tp3600
a(S'SUNS\n'
p3601
F3.4700000000000024
tp3602
a(S'BIOS\n'
p3603
F3.4799999999999995
tp3604
a(S'SMT\n'
p3605
F3.4799999999999995
tp3606
a(S'MKTX\n'
p3607
F3.4800000000000004
tp3608
a(S'ARCC\n'
p3609
F3.4899999999999984
tp3610
a(S'AWRE\n'
p3611
F3.4899999999999998
tp3612
a(S'IACI\n'
p3613
F3.5
tp3614
a(S'GRMN\n'
p3615
F3.5
tp3616
a(S'FDEF\n'
p3617
F3.5000000000000018
tp3618
a(S'IOSP\n'
p3619
F3.5199999999999996
tp3620
a(S'IPHS\n'
p3621
F3.520000000000003
tp3622
a(S'CRDN\n'
p3623
F3.5299999999999976
tp3624
a(S'EIHI\n'
p3625
F3.5299999999999994
tp3626
a(S'KFFG\n'
p3627
F3.5299999999999994
tp3628
a(S'CHRW\n'
p3629
F3.530000000000001
tp3630
a(S'RAIL\n'
p3631
F3.539999999999999
tp3632
a(S'UACL\n'
p3633
F3.540000000000001
tp3634
a(S'FWLT\n'
p3635
F3.549999999999997
tp3636
a(S'BBBY\n'
p3637
F3.549999999999997
tp3638
a(S'WAFD\n'
p3639
F3.549999999999999
tp3640
a(S'WSB\n'
p3641
F3.55
tp3642
a(S'BDSI\n'
p3643
F3.55
tp3644
a(S'INSM\n'
p3645
F3.5500000000000003
tp3646
a(S'MXIM\n'
p3647
F3.5500000000000007
tp3648
a(S'NTIC\n'
p3649
F3.5500000000000007
tp3650
a(S'ACHN\n'
p3651
F3.5599999999999996
tp3652
a(S'GLBZ\n'
p3653
F3.5599999999999996
tp3654
a(S'CAR\n'
p3655
F3.5600000000000005
tp3656
a(S'ARCI\n'
p3657
F3.5600000000000005
tp3658
a(S'GALT\n'
p3659
F3.5700000000000003
tp3660
a(S'PRMW\n'
p3661
F3.5700000000000003
tp3662
a(S'QCOM\n'
p3663
F3.5700000000000003
tp3664
a(S'XRAY\n'
p3665
F3.5700000000000003
tp3666
a(S'ARTC\n'
p3667
F3.5700000000000003
tp3668
a(S'MSFT\n'
p3669
F3.5799999999999983
tp3670
a(S'LINC\n'
p3671
F3.58
tp3672
a(S'SCSC\n'
p3673
F3.5899999999999963
tp3674
a(S'WPRT\n'
p3675
F3.59
tp3676
a(S'NPSP\n'
p3677
F3.6099999999999994
tp3678
a(S'FMBI\n'
p3679
F3.6099999999999994
tp3680
a(S'TRGT\n'
p3681
F3.6100000000000003
tp3682
a(S'FXCB\n'
p3683
F3.619999999999999
tp3684
a(S'CRAI\n'
p3685
F3.629999999999999
tp3686
a(S'FONR\n'
p3687
F3.63
tp3688
a(S'ARRS\n'
p3689
F3.630000000000001
tp3690
a(S'WASH\n'
p3691
F3.639999999999997
tp3692
a(S'DBLE\n'
p3693
F3.6400000000000006
tp3694
a(S'JST\n'
p3695
F3.6400000000000006
tp3696
a(S'FNHC\n'
p3697
F3.65
tp3698
a(S'GSJK\n'
p3699
F3.6500000000000004
tp3700
a(S'AXFN\n'
p3701
F3.650000000000002
tp3702
a(S'QABA\n'
p3703
F3.66
tp3704
a(S'CBIN\n'
p3705
F3.67
tp3706
a(S'DRCO\n'
p3707
F3.67
tp3708
a(S'UG\n'
p3709
F3.6799999999999997
tp3710
a(S'FNGN\n'
p3711
F3.6799999999999997
tp3712
a(S'MBFI\n'
p3713
F3.6899999999999995
tp3714
a(S'ATLO\n'
p3715
F3.6899999999999995
tp3716
a(S'CALI\n'
p3717
F3.6900000000000004
tp3718
a(S'PGC\n'
p3719
F3.6999999999999993
tp3720
a(S'RBCN\n'
p3721
F3.7
tp3722
a(S'TWGP\n'
p3723
F3.719999999999999
tp3724
a(S'MPEL\n'
p3725
F3.719999999999999
tp3726
a(S'DEST\n'
p3727
F3.7200000000000006
tp3728
a(S'ACFN\n'
p3729
F3.7299999999999995
tp3730
a(S'FFBH\n'
p3731
F3.7300000000000004
tp3732
a(S'SNTA\n'
p3733
F3.7399999999999998
tp3734
a(S'ALGN\n'
p3735
F3.75
tp3736
a(S'CHSCP\n'
p3737
F3.75
tp3738
a(S'PSMT\n'
p3739
F3.75
tp3740
a(S'LABL\n'
p3741
F3.759999999999998
tp3742
a(S'GRIF\n'
p3743
F3.759999999999998
tp3744
a(S'BUR\n'
p3745
F3.76
tp3746
a(S'SANW\n'
p3747
F3.7600000000000007
tp3748
a(S'HFFC\n'
p3749
F3.7699999999999996
tp3750
a(S'PURE\n'
p3751
F3.7699999999999996
tp3752
a(S'MDLZ\n'
p3753
F3.7699999999999996
tp3754
a(S'EBSB\n'
p3755
F3.7699999999999996
tp3756
a(S'VECO\n'
p3757
F3.7699999999999996
tp3758
a(S'ISBC\n'
p3759
F3.7699999999999996
tp3760
a(S'IIJI\n'
p3761
F3.789999999999999
tp3762
a(S'CRRC\n'
p3763
F3.8000000000000007
tp3764
a(S'PNQI\n'
p3765
F3.8000000000000043
tp3766
a(S'GBLI\n'
p3767
F3.8099999999999987
tp3768
a(S'EVBS\n'
p3769
F3.81
tp3770
a(S'SAVB\n'
p3771
F3.820000000000001
tp3772
a(S'HNH\n'
p3773
F3.83
tp3774
a(S'WLBPZ\n'
p3775
F3.84
tp3776
a(S'NUAN\n'
p3777
F3.84
tp3778
a(S'GRID\n'
p3779
F3.849999999999998
tp3780
a(S'SYNL\n'
p3781
F3.8499999999999996
tp3782
a(S'EDS\n'
p3783
F3.85
tp3784
a(S'AMBT\n'
p3785
F3.85
tp3786
a(S'BHLB\n'
p3787
F3.8500000000000014
tp3788
a(S'AUXL\n'
p3789
F3.860000000000001
tp3790
a(S'XXIA\n'
p3791
F3.869999999999999
tp3792
a(S'LONG\n'
p3793
F3.879999999999999
tp3794
a(S'PGNX\n'
p3795
F3.8899999999999997
tp3796
a(S'PGRX\n'
p3797
F3.89
tp3798
a(S'MDCA\n'
p3799
F3.8900000000000006
tp3800
a(S'BCSB\n'
p3801
F3.9000000000000004
tp3802
a(S'GTAT\n'
p3803
F3.91
tp3804
a(S'CHCO\n'
p3805
F3.919999999999998
tp3806
a(S'ASBB\n'
p3807
F3.92
tp3808
a(S'PPBI\n'
p3809
F3.92
tp3810
a(S'FAST\n'
p3811
F3.9200000000000017
tp3812
a(S'CECE\n'
p3813
F3.9300000000000006
tp3814
a(S'CHFC\n'
p3815
F3.9400000000000013
tp3816
a(S'NFSB\n'
p3817
F3.9499999999999993
tp3818
a(S'METR\n'
p3819
F3.9499999999999993
tp3820
a(S'NOVB\n'
p3821
F3.960000000000001
tp3822
a(S'SPWR\n'
p3823
F3.969999999999999
tp3824
a(S'STFC\n'
p3825
F3.969999999999999
tp3826
a(S'AKRX\n'
p3827
F3.9700000000000006
tp3828
a(S'NEBS\n'
p3829
F3.9799999999999986
tp3830
a(S'TAST\n'
p3831
F3.9800000000000004
tp3832
a(S'VPHM\n'
p3833
F3.9800000000000004
tp3834
a(S'EBTC\n'
p3835
F3.9800000000000004
tp3836
a(S'MPAA\n'
p3837
F3.9800000000000004
tp3838
a(S'IFSM\n'
p3839
F3.9800000000000004
tp3840
a(S'VCSH\n'
p3841
F3.980000000000004
tp3842
a(S'ACET\n'
p3843
F3.99
tp3844
a(S'QGEN\n'
p3845
F3.99
tp3846
a(S'SFBC\n'
p3847
F4.0
tp3848
a(S'VASC\n'
p3849
F4.020000000000001
tp3850
a(S'FMFC\n'
p3851
F4.029999999999999
tp3852
a(S'ZION\n'
p3853
F4.030000000000001
tp3854
a(S'CATY\n'
p3855
F4.040000000000001
tp3856
a(S'CHNR\n'
p3857
F4.05
tp3858
a(S'ZAGG\n'
p3859
F4.05
tp3860
a(S'OSM\n'
p3861
F4.050000000000001
tp3862
a(S'SLM\n'
p3863
F4.059999999999999
tp3864
a(S'HFBL\n'
p3865
F4.060000000000002
tp3866
a(S'FORR\n'
p3867
F4.089999999999996
tp3868
a(S'JXSB\n'
p3869
F4.09
tp3870
a(S'STRM\n'
p3871
F4.09
tp3872
a(S'HOFT\n'
p3873
F4.09
tp3874
a(S'INCY\n'
p3875
F4.099999999999998
tp3876
a(S'RPXC\n'
p3877
F4.1
tp3878
a(S'CPLA\n'
p3879
F4.109999999999999
tp3880
a(S'BLDR\n'
p3881
F4.11
tp3882
a(S'ENOC\n'
p3883
F4.110000000000001
tp3884
a(S'ARUN\n'
p3885
F4.110000000000003
tp3886
a(S'TRIB\n'
p3887
F4.119999999999999
tp3888
a(S'EML\n'
p3889
F4.130000000000001
tp3890
a(S'VOCS\n'
p3891
F4.130000000000001
tp3892
a(S'FLIC\n'
p3893
F4.130000000000003
tp3894
a(S'RNST\n'
p3895
F4.140000000000001
tp3896
a(S'FTNT\n'
p3897
F4.140000000000001
tp3898
a(S'BBNK\n'
p3899
F4.149999999999999
tp3900
a(S'DATE\n'
p3901
F4.15
tp3902
a(S'RBNF\n'
p3903
F4.15
tp3904
a(S'GMETP\n'
p3905
F4.17
tp3906
a(S'ALKS\n'
p3907
F4.17
tp3908
a(S'OXLC\n'
p3909
F4.18
tp3910
a(S'HURN\n'
p3911
F4.189999999999998
tp3912
a(S'ASTE\n'
p3913
F4.189999999999998
tp3914
a(S'PLXS\n'
p3915
F4.189999999999998
tp3916
a(S'PTNR\n'
p3917
F4.1899999999999995
tp3918
a(S'LNDC\n'
p3919
F4.19
tp3920
a(S'EXXI\n'
p3921
F4.190000000000001
tp3922
a(S'NEOG\n'
p3923
F4.199999999999996
tp3924
a(S'ININ\n'
p3925
F4.199999999999999
tp3926
a(S'ANDE\n'
p3927
F4.200000000000003
tp3928
a(S'INDB\n'
p3929
F4.209999999999997
tp3930
a(S'RENT\n'
p3931
F4.210000000000001
tp3932
a(S'HAFC\n'
p3933
F4.210000000000001
tp3934
a(S'CTIC\n'
p3935
F4.22
tp3936
a(S'FARM\n'
p3937
F4.220000000000001
tp3938
a(S'PSCI\n'
p3939
F4.220000000000002
tp3940
a(S'ASUR\n'
p3941
F4.23
tp3942
a(S'CRNT\n'
p3943
F4.23
tp3944
a(S'APFC\n'
p3945
F4.239999999999998
tp3946
a(S'YNDX\n'
p3947
F4.239999999999998
tp3948
a(S'TOFC\n'
p3949
F4.24
tp3950
a(S'ADVS\n'
p3951
F4.259999999999998
tp3952
a(S'FES\n'
p3953
F4.26
tp3954
a(S'ARKR\n'
p3955
F4.279999999999999
tp3956
a(S'MMLP\n'
p3957
F4.289999999999999
tp3958
a(S'NKTR\n'
p3959
F4.289999999999999
tp3960
a(S'HPCCP\n'
p3961
F4.289999999999999
tp3962
a(S'SIMO\n'
p3963
F4.299999999999999
tp3964
a(S'KTEC\n'
p3965
F4.300000000000001
tp3966
a(S'IFEU\n'
p3967
F4.32
tp3968
a(S'VYFC\n'
p3969
F4.330000000000001
tp3970
a(S'NTLS\n'
p3971
F4.34
tp3972
a(S'BELFA\n'
p3973
F4.359999999999999
tp3974
a(S'CROX\n'
p3975
F4.359999999999999
tp3976
a(S'RIMG\n'
p3977
F4.359999999999999
tp3978
a(S'MKTAY\n'
p3979
F4.359999999999999
tp3980
a(S'ATTU\n'
p3981
F4.36
tp3982
a(S'CBOE\n'
p3983
F4.369999999999997
tp3984
a(S'EDAC\n'
p3985
F4.369999999999999
tp3986
a(S'RP\n'
p3987
F4.370000000000001
tp3988
a(S'ANGO\n'
p3989
F4.370000000000001
tp3990
a(S'FCAL\n'
p3991
F4.379999999999999
tp3992
a(S'MENT\n'
p3993
F4.390000000000001
tp3994
a(S'PNFP\n'
p3995
F4.390000000000001
tp3996
a(S'FCHI\n'
p3997
F4.399999999999999
tp3998
a(S'ACAS\n'
p3999
F4.3999999999999995
tp4000
a(S'BOBE\n'
p4001
F4.409999999999997
tp4002
a(S'LMNR\n'
p4003
F4.41
tp4004
a(S'LINTB\n'
p4005
F4.41
tp4006
a(S'PTEN\n'
p4007
F4.41
tp4008
a(S'SAFT\n'
p4009
F4.410000000000004
tp4010
a(S'ISM\n'
p4011
F4.419999999999998
tp4012
a(S'ARII\n'
p4013
F4.440000000000001
tp4014
a(S'SNFCA\n'
p4015
F4.449999999999999
tp4016
a(S'CECO\n'
p4017
F4.449999999999999
tp4018
a(S'SSRI\n'
p4019
F4.450000000000001
tp4020
a(S'FRAN\n'
p4021
F4.450000000000003
tp4022
a(S'BSFT\n'
p4023
F4.460000000000001
tp4024
a(S'LINTA\n'
p4025
F4.479999999999999
tp4026
a(S'PEBK\n'
p4027
F4.48
tp4028
a(S'EMIF\n'
p4029
F4.48
tp4030
a(S'HITT\n'
p4031
F4.489999999999995
tp4032
a(S'TTEK\n'
p4033
F4.490000000000002
tp4034
a(S'ESLT\n'
p4035
F4.5
tp4036
a(S'CSGS\n'
p4037
F4.510000000000002
tp4038
a(S'SHLM\n'
p4039
F4.52
tp4040
a(S'PSCM\n'
p4041
F4.529999999999998
tp4042
a(S'GLNG\n'
p4043
F4.530000000000001
tp4044
a(S'ANAT\n'
p4045
F4.530000000000001
tp4046
a(S'CETV\n'
p4047
F4.54
tp4048
a(S'APSA\n'
p4049
F4.540000000000001
tp4050
a(S'RRD\n'
p4051
F4.57
tp4052
a(S'TECH\n'
p4053
F4.570000000000007
tp4054
a(S'CME\n'
p4055
F4.579999999999998
tp4056
a(S'TTWO\n'
p4057
F4.58
tp4058
a(S'ATAI\n'
p4059
F4.590000000000001
tp4060
a(S'ANCX\n'
p4061
F4.6
tp4062
a(S'PFBI\n'
p4063
F4.61
tp4064
a(S'OTTR\n'
p4065
F4.620000000000001
tp4066
a(S'LGND\n'
p4067
F4.629999999999999
tp4068
a(S'INTX\n'
p4069
F4.649999999999999
tp4070
a(S'USCR\n'
p4071
F4.65
tp4072
a(S'WWWW\n'
p4073
F4.65
tp4074
a(S'FDUS\n'
p4075
F4.65
tp4076
a(S'OTEX\n'
p4077
F4.659999999999997
tp4078
a(S'UFCS\n'
p4079
F4.669999999999998
tp4080
a(S'SNPS\n'
p4081
F4.669999999999998
tp4082
a(S'SPBC\n'
p4083
F4.710000000000001
tp4084
a(S'VOLC\n'
p4085
F4.710000000000001
tp4086
a(S'DIOD\n'
p4087
F4.720000000000002
tp4088
a(S'PSCH\n'
p4089
F4.73
tp4090
a(S'GUID\n'
p4091
F4.73
tp4092
a(S'ATML\n'
p4093
F4.740000000000001
tp4094
a(S'AFCB\n'
p4095
F4.760000000000002
tp4096
a(S'ARMH\n'
p4097
F4.760000000000002
tp4098
a(S'KCLI\n'
p4099
F4.760000000000002
tp4100
a(S'MFSF\n'
p4101
F4.78
tp4102
a(S'RYAAY\n'
p4103
F4.789999999999999
tp4104
a(S'CLUB\n'
p4105
F4.79
tp4106
a(S'OSIR\n'
p4107
F4.790000000000001
tp4108
a(S'PSCF\n'
p4109
F4.800000000000001
tp4110
a(S'KVHI\n'
p4111
F4.8100000000000005
tp4112
a(S'AUBN\n'
p4113
F4.82
tp4114
a(S'AFAM\n'
p4115
F4.830000000000002
tp4116
a(S'NBN\n'
p4117
F4.84
tp4118
a(S'COLM\n'
p4119
F4.840000000000003
tp4120
a(S'WMGI\n'
p4121
F4.849999999999998
tp4122
a(S'CLBH\n'
p4123
F4.859999999999999
tp4124
a(S'TAYCP\n'
p4125
F4.879999999999999
tp4126
a(S'GTWN\n'
p4127
F4.9
tp4128
a(S'MATW\n'
p4129
F4.91
tp4130
a(S'SCOR\n'
p4131
F4.91
tp4132
a(S'ACXM\n'
p4133
F4.910000000000002
tp4134
a(S'SPRD\n'
p4135
F4.919999999999998
tp4136
a(S'DTV\n'
p4137
F4.920000000000002
tp4138
a(S'QLTY\n'
p4139
F4.950000000000001
tp4140
a(S'BMTC\n'
p4141
F4.969999999999999
tp4142
a(S'QLGC\n'
p4143
F4.970000000000001
tp4144
a(S'SUBK\n'
p4145
F4.99
tp4146
a(S'NVEC\n'
p4147
F5.0
tp4148
a(S'PSCC\n'
p4149
F5.010000000000002
tp4150
a(S'GHDX\n'
p4151
F5.02
tp4152
a(S'DNKN\n'
p4153
F5.029999999999998
tp4154
a(S'GENT\n'
p4155
F5.030000000000001
tp4156
a(S'OMER\n'
p4157
F5.039999999999999
tp4158
a(S'ACWI\n'
p4159
F5.049999999999997
tp4160
a(S'XRTX\n'
p4161
F5.08
tp4162
a(S'PLFE\n'
p4163
F5.08
tp4164
a(S'QCRH\n'
p4165
F5.1
tp4166
a(S'ARDNA\n'
p4167
F5.1299999999999955
tp4168
a(S'RTLX\n'
p4169
F5.139999999999999
tp4170
a(S'TSTC\n'
p4171
F5.14
tp4172
a(S'PNRG\n'
p4173
F5.16
tp4174
a(S'OFED\n'
p4175
F5.16
tp4176
a(S'PAYX\n'
p4177
F5.169999999999998
tp4178
a(S'WRLS\n'
p4179
F5.18
tp4180
a(S'PWOD\n'
p4181
F5.18
tp4182
a(S'JRCC\n'
p4183
F5.180000000000001
tp4184
a(S'POWI\n'
p4185
F5.180000000000003
tp4186
a(S'CAMP\n'
p4187
F5.2299999999999995
tp4188
a(S'GTIV\n'
p4189
F5.23
tp4190
a(S'NTSP\n'
p4191
F5.25
tp4192
a(S'WACLY\n'
p4193
F5.25
tp4194
a(S'MOFG\n'
p4195
F5.26
tp4196
a(S'ARTNA\n'
p4197
F5.260000000000002
tp4198
a(S'GABC\n'
p4199
F5.270000000000003
tp4200
a(S'ASMI\n'
p4201
F5.279999999999998
tp4202
a(S'FRNK\n'
p4203
F5.280000000000001
tp4204
a(S'BLKB\n'
p4205
F5.290000000000003
tp4206
a(S'ALIM\n'
p4207
F5.300000000000001
tp4208
a(S'BIOF\n'
p4209
F5.3100000000000005
tp4210
a(S'PENN\n'
p4211
F5.310000000000002
tp4212
a(S'WBSN\n'
p4213
F5.3199999999999985
tp4214
a(S'SLGN\n'
p4215
F5.32
tp4216
a(S'HZNP\n'
p4217
F5.32
tp4218
a(S'VGLT\n'
p4219
F5.329999999999998
tp4220
a(S'MNRKP\n'
p4221
F5.359999999999999
tp4222
a(S'FNBN\n'
p4223
F5.359999999999999
tp4224
a(S'PDCO\n'
p4225
F5.359999999999999
tp4226
a(S'HMSY\n'
p4227
F5.370000000000001
tp4228
a(S'JAKK\n'
p4229
F5.370000000000001
tp4230
a(S'BMC\n'
p4231
F5.3799999999999955
tp4232
a(S'CHRM\n'
p4233
F5.38
tp4234
a(S'ADBE\n'
p4235
F5.390000000000001
tp4236
a(S'OFIX\n'
p4237
F5.390000000000001
tp4238
a(S'BKYF\n'
p4239
F5.399999999999999
tp4240
a(S'ABMD\n'
p4241
F5.4
tp4242
a(S'SOMX\n'
p4243
F5.4
tp4244
a(S'SUMR\n'
p4245
F5.41
tp4246
a(S'JSM\n'
p4247
F5.420000000000002
tp4248
a(S'LNCE\n'
p4249
F5.430000000000003
tp4250
a(S'BSET\n'
p4251
F5.449999999999999
tp4252
a(S'ENDP\n'
p4253
F5.449999999999999
tp4254
a(S'ALTR\n'
p4255
F5.460000000000001
tp4256
a(S'SUNH\n'
p4257
F5.469999999999999
tp4258
a(S'VTUS\n'
p4259
F5.469999999999999
tp4260
a(S'MBWM\n'
p4261
F5.48
tp4262
a(S'DNBF\n'
p4263
F5.49
tp4264
a(S'WOOD\n'
p4265
F5.5
tp4266
a(S'JACK\n'
p4267
F5.5
tp4268
a(S'STAN\n'
p4269
F5.5
tp4270
a(S'DELL\n'
p4271
F5.5
tp4272
a(S'MRCY\n'
p4273
F5.51
tp4274
a(S'BGFV\n'
p4275
F5.510000000000002
tp4276
a(S'KEYW\n'
p4277
F5.5200000000000005
tp4278
a(S'LAWS\n'
p4279
F5.520000000000001
tp4280
a(S'MLVF\n'
p4281
F5.53
tp4282
a(S'MITK\n'
p4283
F5.530000000000001
tp4284
a(S'AAXJ\n'
p4285
F5.549999999999997
tp4286
a(S'BOLT\n'
p4287
F5.57
tp4288
a(S'PAAS\n'
p4289
F5.580000000000002
tp4290
a(S'NETE\n'
p4291
F5.6
tp4292
a(S'PACW\n'
p4293
F5.609999999999999
tp4294
a(S'ROSG\n'
p4295
F5.61
tp4296
a(S'MDAS\n'
p4297
F5.619999999999999
tp4298
a(S'DXCM\n'
p4299
F5.64
tp4300
a(S'GTLS\n'
p4301
F5.640000000000001
tp4302
a(S'CCOI\n'
p4303
F5.65
tp4304
a(S'AVHI\n'
p4305
F5.67
tp4306
a(S'CFNL\n'
p4307
F5.67
tp4308
a(S'SNDK\n'
p4309
F5.670000000000002
tp4310
a(S'LMOS\n'
p4311
F5.6800000000000015
tp4312
a(S'OKSB\n'
p4313
F5.69
tp4314
a(S'ANTH\n'
p4315
F5.709999999999999
tp4316
a(S'RUE\n'
p4317
F5.710000000000001
tp4318
a(S'YDNT\n'
p4319
F5.719999999999999
tp4320
a(S'STEC\n'
p4321
F5.72
tp4322
a(S'PFBC\n'
p4323
F5.720000000000001
tp4324
a(S'PVTB\n'
p4325
F5.73
tp4326
a(S'LRCX\n'
p4327
F5.739999999999995
tp4328
a(S'MORN\n'
p4329
F5.740000000000002
tp4330
a(S'BEAV\n'
p4331
F5.75
tp4332
a(S'GEVO\n'
p4333
F5.75
tp4334
a(S'INWK\n'
p4335
F5.76
tp4336
a(S'FLIR\n'
p4337
F5.77
tp4338
a(S'CNBKA\n'
p4339
F5.77
tp4340
a(S'VLTR\n'
p4341
F5.809999999999999
tp4342
a(S'ENSG\n'
p4343
F5.82
tp4344
a(S'FFCH\n'
p4345
F5.839999999999999
tp4346
a(S'INTL\n'
p4347
F5.850000000000001
tp4348
a(S'WDFC\n'
p4349
F5.859999999999999
tp4350
a(S'JCTCF\n'
p4351
F5.869999999999999
tp4352
a(S'CTBI\n'
p4353
F5.879999999999999
tp4354
a(S'ARNA\n'
p4355
F5.88
tp4356
a(S'OZRK\n'
p4357
F5.899999999999999
tp4358
a(S'SCHS\n'
p4359
F5.92
tp4360
a(S'USLM\n'
p4361
F5.93
tp4362
a(S'IMOS\n'
p4363
F5.93
tp4364
a(S'UTHR\n'
p4365
F5.950000000000003
tp4366
a(S'KONE\n'
p4367
F5.960000000000001
tp4368
a(S'PROV\n'
p4369
F5.989999999999998
tp4370
a(S'THOR\n'
p4371
F6.02
tp4372
a(S'FRME\n'
p4373
F6.030000000000001
tp4374
a(S'EMCF\n'
p4375
F6.039999999999999
tp4376
a(S'MRVL\n'
p4377
F6.040000000000001
tp4378
a(S'PSSI\n'
p4379
F6.059999999999999
tp4380
a(S'SNTS\n'
p4381
F6.0600000000000005
tp4382
a(S'WSFS\n'
p4383
F6.079999999999998
tp4384
a(S'TELK\n'
p4385
F6.08
tp4386
a(S'GEOY\n'
p4387
F6.080000000000002
tp4388
a(S'EMMSP\n'
p4389
F6.109999999999999
tp4390
a(S'IILG\n'
p4391
F6.119999999999999
tp4392
a(S'KTCC\n'
p4393
F6.12
tp4394
a(S'VSAT\n'
p4395
F6.1299999999999955
tp4396
a(S'ECOL\n'
p4397
F6.129999999999999
tp4398
a(S'CASS\n'
p4399
F6.149999999999999
tp4400
a(S'TRLG\n'
p4401
F6.159999999999997
tp4402
a(S'SGI\n'
p4403
F6.18
tp4404
a(S'RDWR\n'
p4405
F6.180000000000003
tp4406
a(S'FBMI\n'
p4407
F6.21
tp4408
a(S'WIRE\n'
p4409
F6.23
tp4410
a(S'SEIC\n'
p4411
F6.230000000000002
tp4412
a(S'JOSB\n'
p4413
F6.230000000000004
tp4414
a(S'IPGP\n'
p4415
F6.240000000000002
tp4416
a(S'PLTM\n'
p4417
F6.250000000000002
tp4418
a(S'STSA\n'
p4419
F6.259999999999998
tp4420
a(S'HSII\n'
p4421
F6.260000000000002
tp4422
a(S'SCMFO\n'
p4423
F6.27
tp4424
a(S'CVV\n'
p4425
F6.270000000000001
tp4426
a(S'EXPO\n'
p4427
F6.270000000000003
tp4428
a(S'ADI\n'
p4429
F6.280000000000001
tp4430
a(S'CBST\n'
p4431
F6.280000000000001
tp4432
a(S'EXPD\n'
p4433
F6.280000000000001
tp4434
a(S'SCVL\n'
p4435
F6.280000000000001
tp4436
a(S'REED\n'
p4437
F6.3
tp4438
a(S'LARK\n'
p4439
F6.3199999999999985
tp4440
a(S'PSAU\n'
p4441
F6.329999999999998
tp4442
a(S'CTGX\n'
p4443
F6.359999999999998
tp4444
a(S'USAK\n'
p4445
F6.359999999999999
tp4446
a(S'IFGL\n'
p4447
F6.369999999999997
tp4448
a(S'MRLN\n'
p4449
F6.390000000000001
tp4450
a(S'TRS\n'
p4451
F6.390000000000001
tp4452
a(S'OCZ\n'
p4453
F6.3999999999999995
tp4454
a(S'CMTL\n'
p4455
F6.419999999999998
tp4456
a(S'BPOPM\n'
p4457
F6.43
tp4458
a(S'ASNA\n'
p4459
F6.440000000000001
tp4460
a(S'BCPC\n'
p4461
F6.440000000000005
tp4462
a(S'MANT\n'
p4463
F6.449999999999999
tp4464
a(S'GSVC\n'
p4465
F6.45
tp4466
a(S'AEGR\n'
p4467
F6.469999999999999
tp4468
a(S'FLXS\n'
p4469
F6.48
tp4470
a(S'EBOD\n'
p4471
F6.5
tp4472
a(S'IFNA\n'
p4473
F6.509999999999998
tp4474
a(S'AEZS\n'
p4475
F6.529999999999999
tp4476
a(S'FFIN\n'
p4477
F6.530000000000001
tp4478
a(S'PSCD\n'
p4479
F6.599999999999998
tp4480
a(S'RRGB\n'
p4481
F6.600000000000001
tp4482
a(S'SCHL\n'
p4483
F6.600000000000001
tp4484
a(S'CKEC\n'
p4485
F6.61
tp4486
a(S'ASEI\n'
p4487
F6.630000000000003
tp4488
a(S'VTWG\n'
p4489
F6.630000000000003
tp4490
a(S'TRNS\n'
p4491
F6.6499999999999995
tp4492
a(S'CRAY\n'
p4493
F6.66
tp4494
a(S'NCIT\n'
p4495
F6.66
tp4496
a(S'GIFI\n'
p4497
F6.699999999999999
tp4498
a(S'WCBO\n'
p4499
F6.699999999999999
tp4500
a(S'CACC\n'
p4501
F6.709999999999994
tp4502
a(S'DMRC\n'
p4503
F6.75
tp4504
a(S'BANF\n'
p4505
F6.75
tp4506
a(S'DLGC\n'
p4507
F6.770000000000001
tp4508
a(S'ASYS\n'
p4509
F6.800000000000001
tp4510
a(S'SMBL\n'
p4511
F6.800000000000001
tp4512
a(S'DHIL\n'
p4513
F6.829999999999998
tp4514
a(S'REDF\n'
p4515
F6.840000000000001
tp4516
a(S'NAFC\n'
p4517
F6.859999999999999
tp4518
a(S'ACGL\n'
p4519
F6.859999999999999
tp4520
a(S'SGNT\n'
p4521
F6.860000000000001
tp4522
a(S'HCSG\n'
p4523
F6.890000000000001
tp4524
a(S'JKHY\n'
p4525
F6.919999999999998
tp4526
a(S'CVLY\n'
p4527
F6.93
tp4528
a(S'DWSN\n'
p4529
F6.949999999999999
tp4530
a(S'OPEN\n'
p4531
F6.969999999999999
tp4532
a(S'CAKE\n'
p4533
F6.98
tp4534
a(S'BCOR\n'
p4535
F6.98
tp4536
a(S'SMCI\n'
p4537
F7.029999999999999
tp4538
a(S'ADP\n'
p4539
F7.039999999999999
tp4540
a(S'MPWR\n'
p4541
F7.0699999999999985
tp4542
a(S'NILE\n'
p4543
F7.079999999999998
tp4544
a(S'AGNC\n'
p4545
F7.080000000000002
tp4546
a(S'OMAB\n'
p4547
F7.100000000000001
tp4548
a(S'MDRX\n'
p4549
F7.119999999999999
tp4550
a(S'BPOPN\n'
p4551
F7.129999999999999
tp4552
a(S'ANCB\n'
p4553
F7.129999999999999
tp4554
a(S'SYNA\n'
p4555
F7.130000000000003
tp4556
a(S'TWTC\n'
p4557
F7.140000000000001
tp4558
a(S'ATHN\n'
p4559
F7.149999999999999
tp4560
a(S'AAWW\n'
p4561
F7.149999999999999
tp4562
a(S'LSBI\n'
p4563
F7.190000000000001
tp4564
a(S'BOKF\n'
p4565
F7.219999999999999
tp4566
a(S'MEOH\n'
p4567
F7.220000000000002
tp4568
a(S'IPCM\n'
p4569
F7.229999999999997
tp4570
a(S'LINE\n'
p4571
F7.239999999999995
tp4572
a(S'FNSR\n'
p4573
F7.239999999999998
tp4574
a(S'KBALB\n'
p4575
F7.25
tp4576
a(S'LOPE\n'
p4577
F7.25
tp4578
a(S'COHR\n'
p4579
F7.279999999999994
tp4580
a(S'SRDX\n'
p4581
F7.280000000000001
tp4582
a(S'KEYN\n'
p4583
F7.280000000000001
tp4584
a(S'LKQ\n'
p4585
F7.290000000000001
tp4586
a(S'PKOL\n'
p4587
F7.300000000000001
tp4588
a(S'ROLL\n'
p4589
F7.329999999999998
tp4590
a(S'VTWV\n'
p4591
F7.359999999999999
tp4592
a(S'LSTR\n'
p4593
F7.369999999999997
tp4594
a(S'SWHC\n'
p4595
F7.399999999999999
tp4596
a(S'AMPL\n'
p4597
F7.4
tp4598
a(S'NKSH\n'
p4599
F7.43
tp4600
a(S'FDML\n'
p4601
F7.460000000000001
tp4602
a(S'FFKT\n'
p4603
F7.49
tp4604
a(S'CPRT\n'
p4605
F7.490000000000002
tp4606
a(S'EGBN\n'
p4607
F7.530000000000001
tp4608
a(S'IART\n'
p4609
F7.540000000000003
tp4610
a(S'SPNC\n'
p4611
F7.56
tp4612
a(S'SSNC\n'
p4613
F7.59
tp4614
a(S'VTWO\n'
p4615
F7.659999999999997
tp4616
a(S'VLGEA\n'
p4617
F7.670000000000002
tp4618
a(S'MYL\n'
p4619
F7.719999999999999
tp4620
a(S'ERIE\n'
p4621
F7.730000000000004
tp4622
a(S'MELI\n'
p4623
F7.730000000000004
tp4624
a(S'ANNB\n'
p4625
F7.78
tp4626
a(S'NAVG\n'
p4627
F7.780000000000001
tp4628
a(S'OSTK\n'
p4629
F7.790000000000001
tp4630
a(S'DGIT\n'
p4631
F7.809999999999999
tp4632
a(S'DTSI\n'
p4633
F7.809999999999999
tp4634
a(S'IFAS\n'
p4635
F7.829999999999998
tp4636
a(S'TESS\n'
p4637
F7.830000000000002
tp4638
a(S'LANC\n'
p4639
F7.839999999999989
tp4640
a(S'UTEK\n'
p4641
F7.84
tp4642
a(S'SREV\n'
p4643
F7.85
tp4644
a(S'WINA\n'
p4645
F7.850000000000001
tp4646
a(S'ARLP\n'
p4647
F7.850000000000001
tp4648
a(S'YRCW\n'
p4649
F7.87
tp4650
a(S'HEES\n'
p4651
F7.890000000000001
tp4652
a(S'UMBF\n'
p4653
F7.890000000000001
tp4654
a(S'SCSS\n'
p4655
F7.940000000000001
tp4656
a(S'CRBC\n'
p4657
F7.950000000000001
tp4658
a(S'CY\n'
p4659
F7.960000000000001
tp4660
a(S'QQQ\n'
p4661
F7.960000000000001
tp4662
a(S'PCH\n'
p4663
F8.000000000000004
tp4664
a(S'PLCM\n'
p4665
F8.009999999999998
tp4666
a(S'CAC\n'
p4667
F8.07
tp4668
a(S'PCRX\n'
p4669
F8.07
tp4670
a(S'UTMD\n'
p4671
F8.079999999999998
tp4672
a(S'MEDW\n'
p4673
F8.089999999999998
tp4674
a(S'FOSL\n'
p4675
F8.099999999999994
tp4676
a(S'SHOO\n'
p4677
F8.100000000000001
tp4678
a(S'TAYC\n'
p4679
F8.16
tp4680
a(S'NWS\n'
p4681
F8.16
tp4682
a(S'WTFC\n'
p4683
F8.16
tp4684
a(S'LECO\n'
p4685
F8.18
tp4686
a(S'FBIZ\n'
p4687
F8.190000000000001
tp4688
a(S'VONG\n'
p4689
F8.219999999999999
tp4690
a(S'AVEO\n'
p4691
F8.24
tp4692
a(S'CELG\n'
p4693
F8.25
tp4694
a(S'BONT\n'
p4695
F8.3
tp4696
a(S'VRSN\n'
p4697
F8.32
tp4698
a(S'OABC\n'
p4699
F8.330000000000002
tp4700
a(S'NTCT\n'
p4701
F8.35
tp4702
a(S'ESRX\n'
p4703
F8.350000000000001
tp4704
a(S'NWSA\n'
p4705
F8.360000000000003
tp4706
a(S'CPTS\n'
p4707
F8.37
tp4708
a(S'LIFE\n'
p4709
F8.379999999999995
tp4710
a(S'SGEN\n'
p4711
F8.379999999999999
tp4712
a(S'SPPRO\n'
p4713
F8.39
tp4714
a(S'SENEB\n'
p4715
F8.41
tp4716
a(S'SAIA\n'
p4717
F8.430000000000001
tp4718
a(S'UBNT\n'
p4719
F8.45
tp4720
a(S'ESBK\n'
p4721
F8.469999999999999
tp4722
a(S'PRFZ\n'
p4723
F8.470000000000006
tp4724
a(S'NVGN\n'
p4725
F8.5
tp4726
a(S'NXTM\n'
p4727
F8.530000000000001
tp4728
a(S'ACOM\n'
p4729
F8.540000000000003
tp4730
a(S'AKAM\n'
p4731
F8.559999999999999
tp4732
a(S'AZPN\n'
p4733
F8.560000000000002
tp4734
a(S'PEBO\n'
p4735
F8.6
tp4736
a(S'GKSR\n'
p4737
F8.600000000000001
tp4738
a(S'VMED\n'
p4739
F8.620000000000005
tp4740
a(S'CTXS\n'
p4741
F8.68
tp4742
a(S'ACIW\n'
p4743
F8.709999999999997
tp4744
a(S'INTU\n'
p4745
F8.75
tp4746
a(S'JBSS\n'
p4747
F8.75
tp4748
a(S'VCIT\n'
p4749
F8.759999999999991
tp4750
a(S'HSTM\n'
p4751
F8.770000000000001
tp4752
a(S'FCNCA\n'
p4753
F8.780000000000001
tp4754
a(S'VTHR\n'
p4755
F8.780000000000001
tp4756
a(S'SATS\n'
p4757
F8.790000000000003
tp4758
a(S'SENEA\n'
p4759
F8.830000000000002
tp4760
a(S'RPRX\n'
p4761
F8.84
tp4762
a(S'ALNY\n'
p4763
F8.84
tp4764
a(S'SLMAP\n'
p4765
F8.840000000000003
tp4766
a(S'KIOR\n'
p4767
F8.86
tp4768
a(S'SHLD\n'
p4769
F8.89
tp4770
a(S'KITD\n'
p4771
F8.9
tp4772
a(S'PKT\n'
p4773
F8.909999999999998
tp4774
a(S'VPFG\n'
p4775
F8.909999999999998
tp4776
a(S'STXS\n'
p4777
F8.91
tp4778
a(S'ALLT\n'
p4779
F8.910000000000002
tp4780
a(S'JJSF\n'
p4781
F8.93
tp4782
a(S'GSBC\n'
p4783
F8.95
tp4784
a(S'NWFL\n'
p4785
F8.959999999999997
tp4786
a(S'FARO\n'
p4787
F8.989999999999995
tp4788
a(S'RVBD\n'
p4789
F8.989999999999998
tp4790
a(S'CALL\n'
p4791
F8.99
tp4792
a(S'LFUS\n'
p4793
F8.990000000000002
tp4794
a(S'VONE\n'
p4795
F9.049999999999997
tp4796
a(S'MGAM\n'
p4797
F9.059999999999999
tp4798
a(S'PDFS\n'
p4799
F9.06
tp4800
a(S'POWL\n'
p4801
F9.150000000000002
tp4802
a(S'EHTH\n'
p4803
F9.21
tp4804
a(S'VLCCF\n'
p4805
F9.22
tp4806
a(S'MTGE\n'
p4807
F9.22
tp4808
a(S'MAT\n'
p4809
F9.25
tp4810
a(S'ACTG\n'
p4811
F9.259999999999998
tp4812
a(S'CRVL\n'
p4813
F9.339999999999996
tp4814
a(S'SIAL\n'
p4815
F9.340000000000003
tp4816
a(S'ATRO\n'
p4817
F9.370000000000001
tp4818
a(S'ABAX\n'
p4819
F9.380000000000003
tp4820
a(S'PHIIK\n'
p4821
F9.399999999999999
tp4822
a(S'VONV\n'
p4823
F9.399999999999999
tp4824
a(S'WDC\n'
p4825
F9.449999999999996
tp4826
a(S'APOG\n'
p4827
F9.46
tp4828
a(S'PHII\n'
p4829
F9.46
tp4830
a(S'SBUX\n'
p4831
F9.469999999999999
tp4832
a(S'ALXA\n'
p4833
F9.48
tp4834
a(S'ODFL\n'
p4835
F9.490000000000002
tp4836
a(S'NTRS\n'
p4837
F9.519999999999996
tp4838
a(S'AVAV\n'
p4839
F9.54
tp4840
a(S'EA\n'
p4841
F9.590000000000002
tp4842
a(S'GLPW\n'
p4843
F9.61
tp4844
a(S'MYGN\n'
p4845
F9.620000000000001
tp4846
a(S'CRMT\n'
p4847
F9.620000000000001
tp4848
a(S'MLAB\n'
p4849
F9.620000000000005
tp4850
a(S'OKSBP\n'
p4851
F9.629999999999999
tp4852
a(S'MGEE\n'
p4853
F9.630000000000003
tp4854
a(S'SIVB\n'
p4855
F9.68
tp4856
a(S'FSTR\n'
p4857
F9.68
tp4858
a(S'BOOM\n'
p4859
F9.7
tp4860
a(S'RGLD\n'
p4861
F9.730000000000004
tp4862
a(S'AMRS\n'
p4863
F9.8
tp4864
a(S'RIMM\n'
p4865
F9.81
tp4866
a(S'NXPI\n'
p4867
F9.81
tp4868
a(S'ICLR\n'
p4869
F9.86
tp4870
a(S'GNTX\n'
p4871
F9.91
tp4872
a(S'AMWD\n'
p4873
F9.930000000000001
tp4874
a(S'SKUL\n'
p4875
F10.04
tp4876
a(S'HOMB\n'
p4877
F10.069999999999997
tp4878
a(S'SFLY\n'
p4879
F10.070000000000004
tp4880
a(S'POPE\n'
p4881
F10.100000000000001
tp4882
a(S'INFI\n'
p4883
F10.12
tp4884
a(S'URBN\n'
p4885
F10.16
tp4886
a(S'NATH\n'
p4887
F10.21
tp4888
a(S'MAYS\n'
p4889
F10.23
tp4890
a(S'ALCO\n'
p4891
F10.310000000000002
tp4892
a(S'SHPG\n'
p4893
F10.319999999999993
tp4894
a(S'CTCT\n'
p4895
F10.34
tp4896
a(S'NFLX\n'
p4897
F10.36999999999999
tp4898
a(S'CASH\n'
p4899
F10.38
tp4900
a(S'SCBT\n'
p4901
F10.43
tp4902
a(S'CALM\n'
p4903
F10.450000000000003
tp4904
a(S'PLUS\n'
p4905
F10.580000000000002
tp4906
a(S'ZLTQ\n'
p4907
F10.620000000000001
tp4908
a(S'APPY\n'
p4909
F10.639999999999999
tp4910
a(S'QLIK\n'
p4911
F10.649999999999999
tp4912
a(S'TREE\n'
p4913
F10.71
tp4914
a(S'AWAY\n'
p4915
F10.719999999999995
tp4916
a(S'VCLT\n'
p4917
F10.719999999999999
tp4918
a(S'TZOO\n'
p4919
F10.8
tp4920
a(S'TRMB\n'
p4921
F10.850000000000001
tp4922
a(S'VIAB\n'
p4923
F10.860000000000007
tp4924
a(S'NTES\n'
p4925
F10.869999999999997
tp4926
a(S'HOVNP\n'
p4927
F10.9
tp4928
a(S'ARIA\n'
p4929
F11.0
tp4930
a(S'BODY\n'
p4931
F11.019999999999998
tp4932
a(S'SBLK\n'
p4933
F11.07
tp4934
a(S'VNQI\n'
p4935
F11.129999999999995
tp4936
a(S'FELE\n'
p4937
F11.130000000000003
tp4938
a(S'EZPW\n'
p4939
F11.220000000000002
tp4940
a(S'SLMBP\n'
p4941
F11.229999999999997
tp4942
a(S'ANSS\n'
p4943
F11.29
tp4944
a(S'ABFS\n'
p4945
F11.319999999999999
tp4946
a(S'SNCR\n'
p4947
F11.32
tp4948
a(S'PRXL\n'
p4949
F11.370000000000001
tp4950
a(S'ORLY\n'
p4951
F11.38000000000001
tp4952
a(S'HBNC\n'
p4953
F11.41
tp4954
a(S'INFY\n'
p4955
F11.579999999999998
tp4956
a(S'ZIP\n'
p4957
F11.59
tp4958
a(S'LUFK\n'
p4959
F11.599999999999994
tp4960
a(S'ACHC\n'
p4961
F11.61
tp4962
a(S'IGLD\n'
p4963
F11.670000000000002
tp4964
a(S'BRLI\n'
p4965
F11.7
tp4966
a(S'CSRE\n'
p4967
F11.750000000000002
tp4968
a(S'LQDT\n'
p4969
F11.870000000000001
tp4970
a(S'BWLD\n'
p4971
F11.93
tp4972
a(S'HIBB\n'
p4973
F11.990000000000002
tp4974
a(S'CINF\n'
p4975
F12.009999999999998
tp4976
a(S'VRSK\n'
p4977
F12.079999999999998
tp4978
a(S'HTLF\n'
p4979
F12.190000000000001
tp4980
a(S'MXWL\n'
p4981
F12.23
tp4982
a(S'DISCB\n'
p4983
F12.240000000000002
tp4984
a(S'UFPI\n'
p4985
F12.240000000000002
tp4986
a(S'BANR\n'
p4987
F12.3
tp4988
a(S'DWCH\n'
p4989
F12.35
tp4990
a(S'OTT\n'
p4991
F12.37
tp4992
a(S'COKE\n'
p4993
F12.38000000000001
tp4994
a(S'BOFI\n'
p4995
F12.46
tp4996
a(S'SBRA\n'
p4997
F12.48
tp4998
a(S'RMBS\n'
p4999
F12.52
tp5000
a(S'CORE\n'
p5001
F12.579999999999998
tp5002
a(S'NASB\n'
p5003
F12.629999999999999
tp5004
a(S'ABCO\n'
p5005
F12.659999999999997
tp5006
a(S'STX\n'
p5007
F12.66
tp5008
a(S'NLNK\n'
p5009
F12.68
tp5010
a(S'AFCE\n'
p5011
F12.729999999999999
tp5012
a(S'TQQQ\n'
p5013
F12.759999999999998
tp5014
a(S'ROVI\n'
p5015
F12.83
tp5016
a(S'CLMT\n'
p5017
F12.830000000000002
tp5018
a(S'DISH\n'
p5019
F12.84
tp5020
a(S'CTAS\n'
p5021
F12.990000000000002
tp5022
a(S'CEBK\n'
p5023
F13.110000000000003
tp5024
a(S'GIII\n'
p5025
F13.129999999999999
tp5026
a(S'CHKP\n'
p5027
F13.159999999999997
tp5028
a(S'FSBI\n'
p5029
F13.219999999999999
tp5030
a(S'ONEQ\n'
p5031
F13.299999999999997
tp5032
a(S'GRFS\n'
p5033
F13.350000000000001
tp5034
a(S'ROST\n'
p5035
F13.36
tp5036
a(S'ITMN\n'
p5037
F13.399999999999999
tp5038
a(S'RDEN\n'
p5039
F13.420000000000002
tp5040
a(S'DISCK\n'
p5041
F13.490000000000002
tp5042
a(S'PERF\n'
p5043
F13.55
tp5044
a(S'CTRP\n'
p5045
F13.579999999999998
tp5046
a(S'ADTN\n'
p5047
F13.59
tp5048
a(S'TROW\n'
p5049
F13.660000000000004
tp5050
a(S'BPAX\n'
p5051
F13.670000000000002
tp5052
a(S'PLCE\n'
p5053
F13.68
tp5054
a(S'SUSS\n'
p5055
F13.690000000000001
tp5056
a(S'SIRO\n'
p5057
F13.690000000000005
tp5058
a(S'CSOD\n'
p5059
F13.72
tp5060
a(S'IRBT\n'
p5061
F13.73
tp5062
a(S'POOL\n'
p5063
F13.889999999999997
tp5064
a(S'HSIC\n'
p5065
F13.920000000000002
tp5066
a(S'BECN\n'
p5067
F14.019999999999996
tp5068
a(S'PMFG\n'
p5069
F14.099999999999998
tp5070
a(S'FEIC\n'
p5071
F14.230000000000004
tp5072
a(S'IBCPO\n'
p5073
F14.239999999999998
tp5074
a(S'SBNY\n'
p5075
F14.290000000000006
tp5076
a(S'NTAP\n'
p5077
F14.3
tp5078
a(S'VRA\n'
p5079
F14.450000000000003
tp5080
a(S'CMCSK\n'
p5081
F14.55
tp5082
a(S'COST\n'
p5083
F14.64
tp5084
a(S'VRTX\n'
p5085
F14.670000000000002
tp5086
a(S'HSNI\n'
p5087
F14.719999999999999
tp5088
a(S'JDAS\n'
p5089
F14.740000000000002
tp5090
a(S'CEVA\n'
p5091
F14.79
tp5092
a(S'DISCA\n'
p5093
F14.79
tp5094
a(S'BCOM\n'
p5095
F14.790000000000001
tp5096
a(S'KALU\n'
p5097
F14.870000000000005
tp5098
a(S'SCHN\n'
p5099
F15.020000000000003
tp5100
a(S'PEGA\n'
p5101
F15.049999999999997
tp5102
a(S'CYNO\n'
p5103
F15.069999999999999
tp5104
a(S'BBSI\n'
p5105
F15.18
tp5106
a(S'CMCSA\n'
p5107
F15.399999999999999
tp5108
a(S'BJRI\n'
p5109
F15.409999999999997
tp5110
a(S'FIRE\n'
p5111
F15.410000000000004
tp5112
a(S'CONN\n'
p5113
F15.480000000000002
tp5114
a(S'SRCL\n'
p5115
F15.480000000000004
tp5116
a(S'BMRN\n'
p5117
F15.61
tp5118
a(S'DORM\n'
p5119
F15.739999999999998
tp5120
a(S'QCOR\n'
p5121
F15.79
tp5122
a(S'MANH\n'
p5123
F15.79
tp5124
a(S'AMCX\n'
p5125
F15.909999999999997
tp5126
a(S'CERN\n'
p5127
F15.939999999999998
tp5128
a(S'WPPGY\n'
p5129
F15.949999999999996
tp5130
a(S'ACAT\n'
p5131
F16.000000000000004
tp5132
a(S'CRUS\n'
p5133
F16.060000000000002
tp5134
a(S'MTSC\n'
p5135
F16.080000000000005
tp5136
a(S'ILMN\n'
p5137
F16.15
tp5138
a(S'SPSC\n'
p5139
F16.150000000000002
tp5140
a(S'LBTYK\n'
p5141
F16.160000000000004
tp5142
a(S'NIHD\n'
p5143
F16.189999999999998
tp5144
a(S'PZZA\n'
p5145
F16.189999999999998
tp5146
a(S'ASML\n'
p5147
F16.199999999999996
tp5148
a(S'LULU\n'
p5149
F16.28000000000001
tp5150
a(S'ALNC\n'
p5151
F16.3
tp5152
a(S'SYNT\n'
p5153
F16.36
tp5154
a(S'CFFI\n'
p5155
F16.45
tp5156
a(S'PATK\n'
p5157
F16.57
tp5158
a(S'NDSN\n'
p5159
F16.67
tp5160
a(S'CVLT\n'
p5161
F16.75
tp5162
a(S'LAMR\n'
p5163
F16.76
tp5164
a(S'CHDN\n'
p5165
F16.93
tp5166
a(S'EDMC\n'
p5167
F16.96
tp5168
a(S'SOHU\n'
p5169
F16.97
tp5170
a(S'CYBX\n'
p5171
F17.110000000000003
tp5172
a(S'AFFY\n'
p5173
F17.18
tp5174
a(S'MSG\n'
p5175
F17.21
tp5176
a(S'EBAY\n'
p5177
F17.22
tp5178
a(S'FFIV\n'
p5179
F17.42
tp5180
a(S'MMYT\n'
p5181
F17.45
tp5182
a(S'LOGM\n'
p5183
F17.54
tp5184
a(S'FISV\n'
p5185
F17.550000000000004
tp5186
a(S'LBTYA\n'
p5187
F17.629999999999995
tp5188
a(S'SRPT\n'
p5189
F17.63
tp5190
a(S'CNQR\n'
p5191
F17.789999999999992
tp5192
a(S'JAZZ\n'
p5193
F17.940000000000005
tp5194
a(S'INFA\n'
p5195
F18.05
tp5196
a(S'CHTR\n'
p5197
F18.240000000000002
tp5198
a(S'WBMD\n'
p5199
F18.5
tp5200
a(S'MAKO\n'
p5201
F18.580000000000005
tp5202
a(S'JBHT\n'
p5203
F18.6
tp5204
a(S'UNFI\n'
p5205
F18.67
tp5206
a(S'CSGP\n'
p5207
F18.830000000000005
tp5208
a(S'ICUI\n'
p5209
F18.870000000000005
tp5210
a(S'ASCMA\n'
p5211
F19.14
tp5212
a(S'APKT\n'
p5213
F19.44
tp5214
a(S'EXPE\n'
p5215
F19.559999999999995
tp5216
a(S'HTWR\n'
p5217
F19.909999999999997
tp5218
a(S'TCBI\n'
p5219
F19.959999999999997
tp5220
a(S'GRPN\n'
p5221
F20.259999999999998
tp5222
a(S'TSCO\n'
p5223
F20.519999999999996
tp5224
a(S'ALOG\n'
p5225
F20.580000000000005
tp5226
a(S'PRGO\n'
p5227
F20.620000000000005
tp5228
a(S'TFM\n'
p5229
F20.64
tp5230
a(S'CBRL\n'
p5231
F20.79
tp5232
a(S'QSII\n'
p5233
F20.82
tp5234
a(S'THQI\n'
p5235
F20.84
tp5236
a(S'AMZN\n'
p5237
F20.840000000000003
tp5238
a(S'PETM\n'
p5239
F21.160000000000004
tp5240
a(S'PCBC\n'
p5241
F21.18
tp5242
a(S'HIFS\n'
p5243
F21.209999999999994
tp5244
a(S'FSLR\n'
p5245
F21.309999999999995
tp5246
a(S'LBTYB\n'
p5247
F21.340000000000003
tp5248
a(S'MSTR\n'
p5249
F21.47
tp5250
a(S'IDXX\n'
p5251
F21.5
tp5252
a(S'DMND\n'
p5253
F21.61
tp5254
a(S'PANL\n'
p5255
F21.61
tp5256
a(S'CWEI\n'
p5257
F21.689999999999998
tp5258
a(S'DJCO\n'
p5259
F22.099999999999994
tp5260
a(S'MDSO\n'
p5261
F22.2
tp5262
a(S'ULTA\n'
p5263
F22.709999999999994
tp5264
a(S'SINA\n'
p5265
F22.909999999999997
tp5266
a(S'CTRX\n'
p5267
F23.22
tp5268
a(S'GYRO\n'
p5269
F23.310000000000002
tp5270
a(S'BIB\n'
p5271
F23.820000000000004
tp5272
a(S'ALXN\n'
p5273
F23.900000000000006
tp5274
a(S'ALGT\n'
p5275
F24.380000000000003
tp5276
a(S'DXPE\n'
p5277
F24.509999999999998
tp5278
a(S'STRA\n'
p5279
F24.910000000000004
tp5280
a(S'NRCI\n'
p5281
F24.97
tp5282
a(S'TPCG\n'
p5283
F25.06
tp5284
a(S'MDVN\n'
p5285
F25.380000000000003
tp5286
a(S'GILD\n'
p5287
F25.580000000000005
tp5288
a(S'APOL\n'
p5289
F26.25
tp5290
a(S'TWIN\n'
p5291
F26.28
tp5292
a(S'BIIB\n'
p5293
F27.11
tp5294
a(S'GEOS\n'
p5295
F27.14
tp5296
a(S'ULTI\n'
p5297
F27.999999999999993
tp5298
a(S'HAIN\n'
p5299
F28.019999999999996
tp5300
a(S'GEVA\n'
p5301
F28.159999999999997
tp5302
a(S'SBAC\n'
p5303
F28.310000000000002
tp5304
a(S'AIRM\n'
p5305
F28.790000000000006
tp5306
a(S'AMGN\n'
p5307
F28.950000000000003
tp5308
a(S'PRAA\n'
p5309
F29.460000000000008
tp5310
a(S'WFM\n'
p5311
F29.580000000000013
tp5312
a(S'LORL\n'
p5313
F29.83
tp5314
a(S'SPEX\n'
p5315
F30.309999999999995
tp5316
a(S'ITIC\n'
p5317
F30.50999999999999
tp5318
a(S'ISRL\n'
p5319
F30.66000000000001
tp5320
a(S'ATRI\n'
p5321
F31.620000000000005
tp5322
a(S'BIDU\n'
p5323
F31.659999999999982
tp5324
a(S'LMCB\n'
p5325
F32.18000000000001
tp5326
a(S'LMCA\n'
p5327
F32.42
tp5328
a(S'CSWC\n'
p5329
F32.7
tp5330
a(S'PNRA\n'
p5331
F33.03
tp5332
a(S'OSIS\n'
p5333
F34.17
tp5334
a(S'SSYS\n'
p5335
F34.230000000000004
tp5336
a(S'UHAL\n'
p5337
F34.88000000000001
tp5338
a(S'SQQQ\n'
p5339
F35.13
tp5340
a(S'ONXX\n'
p5341
F35.58
tp5342
a(S'PCYC\n'
p5343
F36.379999999999995
tp5344
a(S'IBB\n'
p5345
F36.78
tp5346
a(S'MIDD\n'
p5347
F37.370000000000005
tp5348
a(S'CYMI\n'
p5349
F38.519999999999996
tp5350
a(S'MWIV\n'
p5351
F39.06
tp5352
a(S'VRTS\n'
p5353
F41.05
tp5354
a(S'AEPI\n'
p5355
F41.7
tp5356
a(S'GMCR\n'
p5357
F42.28
tp5358
a(S'MLNX\n'
p5359
F48.400000000000006
tp5360
a(S'GOOG\n'
p5361
F66.16999999999996
tp5362
a(S'APAGF\n'
p5363
F68.05000000000001
tp5364
a(S'ASPS\n'
p5365
F69.05
tp5366
a(S'DECK\n'
p5367
F74.55
tp5368
a(S'EQIX\n'
p5369
F82.50999999999999
tp5370
a(S'REGN\n'
p5371
F84.16999999999999
tp5372
a(S'BIS\n'
p5373
F93.35000000000001
tp5374
a(S'PCLN\n'
p5375
F98.06000000000006
tp5376
a(S'ISRG\n'
p5377
F108.42000000000007
tp5378
a(S'AAPL\n'
p5379
F166.2
tp5380
a(S'HBANP\n'
p5381
F221.62
tp5382
a.