(lp0
(S'EPOC\n'
p1
F0.0
tp2
a(S'MNGL\n'
p3
F0.0
tp4
a(S'Z\n'
p5
F0.0
tp6
a(S'ARCP\n'
p7
F0.0
tp8
a(S'FLDM\n'
p9
F0.0
tp10
a(S'ATTU\n'
p11
F0.0
tp12
a(S'ZIP\n'
p13
F0.0
tp14
a(S'TBOW\n'
p15
F0.0
tp16
a(S'PCOM\n'
p17
F0.0
tp18
a(S'CYBX\n'
p19
F0.0
tp20
a(S'GEVO\n'
p21
F0.0
tp22
a(S'WLBPZ\n'
p23
F0.0
tp24
a(S'ASBB\n'
p25
F0.0
tp26
a(S'SOCL\n'
p27
F0.0
tp28
a(S'OXLC\n'
p29
F0.0
tp30
a(S'VONE\n'
p31
F0.0
tp32
a(S'CEMI\n'
p33
F0.0
tp34
a(S'TNGO\n'
p35
F0.0
tp36
a(S'ECYT\n'
p37
F0.0
tp38
a(S'GRFS\n'
p39
F0.0
tp40
a(S'BCDS\n'
p41
F0.0
tp42
a(S'ACRX\n'
p43
F0.0
tp44
a(S'MFRM\n'
p45
F0.0
tp46
a(S'CSOD\n'
p47
F0.0
tp48
a(S'PBSK\n'
p49
F0.0
tp50
a(S'AWAY\n'
p51
F0.0
tp52
a(S'VNET\n'
p53
F0.0
tp54
a(S'CNDO\n'
p55
F0.0
tp56
a(S'VXUS\n'
p57
F0.0
tp58
a(S'STBZ\n'
p59
F0.0
tp60
a(S'FFN\n'
p61
F0.0
tp62
a(S'MNGLU\n'
p63
F0.0
tp64
a(S'KIPO\n'
p65
F0.0
tp66
a(S'SUNS\n'
p67
F0.0
tp68
a(S'NTK\n'
p69
F0.0
tp70
a(S'IMI\n'
p71
F0.0
tp72
a(S'GMLP\n'
p73
F0.0
tp74
a(S'FONE\n'
p75
F0.0
tp76
a(S'FBNK\n'
p77
F0.0
tp78
a(S'GRPN\n'
p79
F0.0
tp80
a(S'GMETP\n'
p81
F0.0
tp82
a(S'TRIO\n'
p83
F0.0
tp84
a(S'NLNK\n'
p85
F0.0
tp86
a(S'GEVA\n'
p87
F0.0
tp88
a(S'SVVC\n'
p89
F0.0
tp90
a(S'ZLTQ\n'
p91
F0.0
tp92
a(S'AWRE\n'
p93
F0.0
tp94
a(S'SGNT\n'
p95
F0.0
tp96
a(S'KIPS\n'
p97
F0.0
tp98
a(S'SKYY\n'
p99
F0.0
tp100
a(S'APWC\n'
p101
F0.0
tp102
a(S'KIOR\n'
p103
F0.0
tp104
a(S'OFED\n'
p105
F0.0
tp106
a(S'MKTG\n'
p107
F0.0
tp108
a(S'ANGI\n'
p109
F0.0
tp110
a(S'CARB\n'
p111
F0.0
tp112
a(S'HCIIP\n'
p113
F0.0
tp114
a(S'HZNP\n'
p115
F0.0
tp116
a(S'SIBC\n'
p117
F0.0
tp118
a(S'TRIP\n'
p119
F0.0
tp120
a(S'WBKC\n'
p121
F0.0
tp122
a(S'BGMD\n'
p123
F0.0
tp124
a(S'SREV\n'
p125
F0.0
tp126
a(S'CLVS\n'
p127
F0.0
tp128
a(S'RPXC\n'
p129
F0.0
tp130
a(S'SAVE\n'
p131
F0.0
tp132
a(S'CSRE\n'
p133
F0.0
tp134
a(S'FRP\n'
p135
F0.0
tp136
a(S'DNKN\n'
p137
F0.0
tp138
a(S'GSJK\n'
p139
F0.0
tp140
a(S'HCOM\n'
p141
F0.0
tp142
a(S'PCRX\n'
p143
F0.0
tp144
a(S'DATE\n'
p145
F0.0
tp146
a(S'UBPSU\n'
p147
F0.0
tp148
a(S'SKUL\n'
p149
F0.0
tp150
a(S'ANCB\n'
p151
F0.0
tp152
a(S'IROQ\n'
p153
F0.0
tp154
a(S'ORIG\n'
p155
F0.0
tp156
a(S'BLRX\n'
p157
F0.0
tp158
a(S'WIFI\n'
p159
F0.0
tp160
a(S'PLMT\n'
p161
F0.0
tp162
a(S'BBOX\n'
p163
F0.0
tp164
a(S'PFLT\n'
p165
F0.0
tp166
a(S'CREE\n'
p167
F0.0
tp168
a(S'CHEF\n'
p169
F0.0
tp170
a(S'GCVRZ\n'
p171
F0.0
tp172
a(S'VELT\n'
p173
F0.0
tp174
a(S'TZYM\n'
p175
F0.0
tp176
a(S'UBNT\n'
p177
F0.0
tp178
a(S'CARZ\n'
p179
F0.0
tp180
a(S'JIVE\n'
p181
F0.0
tp182
a(S'EAGLU\n'
p183
F0.0
tp184
a(S'PGRX\n'
p185
F0.0
tp186
a(S'GSVC\n'
p187
F0.0
tp188
a(S'LWAY\n'
p189
F0.0
tp190
a(S'TRNX\n'
p191
F0.0
tp192
a(S'MEMP\n'
p193
F0.0
tp194
a(S'RLJE\n'
p195
F0.0
tp196
a(S'LMOS\n'
p197
F0.0
tp198
a(S'FRAN\n'
p199
F0.0
tp200
a(S'BLMT\n'
p201
F0.0
tp202
a(S'FRNK\n'
p203
F0.0
tp204
a(S'ZNGA\n'
p205
F0.0
tp206
a(S'VCLK\n'
p207
F0.0
tp208
a(S'MTGE\n'
p209
F0.0
tp210
a(S'YNDX\n'
p211
F0.0
tp212
a(S'SZYM\n'
p213
F0.0
tp214
a(S'NMAR\n'
p215
F0.0
tp216
a(S'FDUS\n'
p217
F0.0
tp218
a(S'MCEP\n'
p219
F0.0
tp220
a(S'AMCX\n'
p221
F0.0
tp222
a(S'BWINA\n'
p223
F0.00999999999999801
tp224
a(S'IKNX\n'
p225
F0.009999999999999787
tp226
a(S'TCRD\n'
p227
F0.009999999999999787
tp228
a(S'PEBK\n'
p229
F0.009999999999999787
tp230
a(S'AFFY\n'
p231
F0.009999999999999787
tp232
a(S'UPI\n'
p233
F0.009999999999999787
tp234
a(S'CHCI\n'
p235
F0.010000000000000009
tp236
a(S'CHY\n'
p237
F0.010000000000001563
tp238
a(S'IRIX\n'
p239
F0.019999999999999574
tp240
a(S'CINF\n'
p241
F0.019999999999999574
tp242
a(S'OVBC\n'
p243
F0.019999999999999574
tp244
a(S'KCAP\n'
p245
F0.019999999999999574
tp246
a(S'OLBK\n'
p247
F0.019999999999999574
tp248
a(S'UBSI\n'
p249
F0.019999999999999574
tp250
a(S'SCLN\n'
p251
F0.019999999999999574
tp252
a(S'NLST\n'
p253
F0.020000000000000018
tp254
a(S'STRM\n'
p255
F0.020000000000000018
tp256
a(S'RAND\n'
p257
F0.020000000000000018
tp258
a(S'MRLN\n'
p259
F0.02000000000000135
tp260
a(S'CNTY\n'
p261
F0.029999999999999805
tp262
a(S'GPIC\n'
p263
F0.03000000000000025
tp264
a(S'TSPT\n'
p265
F0.03000000000000025
tp266
a(S'OSBCP\n'
p267
F0.03000000000000025
tp268
a(S'HNRG\n'
p269
F0.030000000000001137
tp270
a(S'UBCP\n'
p271
F0.030000000000001137
tp272
a(S'KCLI\n'
p273
F0.03999999999999915
tp274
a(S'CFFC\n'
p275
F0.03999999999999959
tp276
a(S'DYNT\n'
p277
F0.039999999999999925
tp278
a(S'KOSS\n'
p279
F0.040000000000000036
tp280
a(S'MNTX\n'
p281
F0.040000000000000036
tp282
a(S'CPBC\n'
p283
F0.040000000000000036
tp284
a(S'SMIT\n'
p285
F0.040000000000000036
tp286
a(S'GBNK\n'
p287
F0.040000000000000036
tp288
a(S'LUNA\n'
p289
F0.040000000000000036
tp290
a(S'BIOS\n'
p291
F0.040000000000000036
tp292
a(S'PPBI\n'
p293
F0.040000000000000036
tp294
a(S'UMPQ\n'
p295
F0.040000000000000924
tp296
a(S'MEIP\n'
p297
F0.050000000000000044
tp298
a(S'ELTK\n'
p299
F0.050000000000000044
tp300
a(S'ESYS\n'
p301
F0.05000000000000071
tp302
a(S'VOXX\n'
p303
F0.05000000000000071
tp304
a(S'BIRT\n'
p305
F0.05000000000000071
tp306
a(S'WLDN\n'
p307
F0.05999999999999961
tp308
a(S'GALT\n'
p309
F0.05999999999999961
tp310
a(S'BLDR\n'
p311
F0.06000000000000005
tp312
a(S'SLTM\n'
p313
F0.06000000000000005
tp314
a(S'SBCF\n'
p315
F0.06000000000000005
tp316
a(S'FFCO\n'
p317
F0.0600000000000005
tp318
a(S'TFCO\n'
p319
F0.06999999999999984
tp320
a(S'AAME\n'
p321
F0.06999999999999984
tp322
a(S'SGRP\n'
p323
F0.06999999999999995
tp324
a(S'SDIX\n'
p325
F0.07000000000000006
tp326
a(S'SPAN\n'
p327
F0.07000000000000028
tp328
a(S'GAIN\n'
p329
F0.07000000000000028
tp330
a(S'INTT\n'
p331
F0.08000000000000007
tp332
a(S'OCC\n'
p333
F0.08000000000000007
tp334
a(S'LSCC\n'
p335
F0.08000000000000007
tp336
a(S'ACUR\n'
p337
F0.08999999999999986
tp338
a(S'MGCD\n'
p339
F0.08999999999999986
tp340
a(S'FCZA\n'
p341
F0.08999999999999986
tp342
a(S'COBZ\n'
p343
F0.08999999999999986
tp344
a(S'DORM\n'
p345
F0.08999999999999986
tp346
a(S'CPRX\n'
p347
F0.08999999999999986
tp348
a(S'VRTA\n'
p349
F0.09000000000000008
tp350
a(S'ROIAK\n'
p351
F0.09000000000000008
tp352
a(S'ARCC\n'
p353
F0.09000000000000163
tp354
a(S'NWPX\n'
p355
F0.09999999999999787
tp356
a(S'CBIN\n'
p357
F0.09999999999999964
tp358
a(S'OCFC\n'
p359
F0.09999999999999964
tp360
a(S'WCBO\n'
p361
F0.09999999999999964
tp362
a(S'CGEN\n'
p363
F0.09999999999999964
tp364
a(S'ATAX\n'
p365
F0.10000000000000053
tp366
a(S'DISCB\n'
p367
F0.10000000000000142
tp368
a(S'GOOD\n'
p369
F0.10000000000000142
tp370
a(S'NYMX\n'
p371
F0.10000000000000142
tp372
a(S'EBSB\n'
p373
F0.10999999999999943
tp374
a(S'VVUS\n'
p375
F0.10999999999999943
tp376
a(S'PESI\n'
p377
F0.10999999999999988
tp378
a(S'EGBN\n'
p379
F0.11000000000000121
tp380
a(S'WVFC\n'
p381
F0.11999999999999922
tp382
a(S'ORBT\n'
p383
F0.11999999999999966
tp384
a(S'IPCI\n'
p385
F0.11999999999999966
tp386
a(S'OMEX\n'
p387
F0.11999999999999966
tp388
a(S'ACAD\n'
p389
F0.11999999999999988
tp390
a(S'IPAS\n'
p391
F0.11999999999999988
tp392
a(S'PTIX\n'
p393
F0.1200000000000001
tp394
a(S'NECB\n'
p395
F0.1200000000000001
tp396
a(S'PLBC\n'
p397
F0.1200000000000001
tp398
a(S'ENSG\n'
p399
F0.129999999999999
tp400
a(S'PTNT\n'
p401
F0.1299999999999999
tp402
a(S'CBRX\n'
p403
F0.1299999999999999
tp404
a(S'ORBC\n'
p405
F0.13000000000000034
tp406
a(S'INDB\n'
p407
F0.13000000000000256
tp408
a(S'HCKT\n'
p409
F0.13999999999999968
tp410
a(S'SFST\n'
p411
F0.13999999999999968
tp412
a(S'EMMS\n'
p413
F0.14
tp414
a(S'INVE\n'
p415
F0.14000000000000012
tp416
a(S'PLFE\n'
p417
F0.14000000000000057
tp418
a(S'VTHR\n'
p419
F0.14000000000000057
tp420
a(S'BCSB\n'
p421
F0.14000000000000057
tp422
a(S'THFF\n'
p423
F0.14999999999999858
tp424
a(S'HBIO\n'
p425
F0.14999999999999947
tp426
a(S'QBAK\n'
p427
F0.1499999999999999
tp428
a(S'MNTG\n'
p429
F0.1499999999999999
tp430
a(S'UNTY\n'
p431
F0.15000000000000036
tp432
a(S'HTBK\n'
p433
F0.15000000000000036
tp434
a(S'DENN\n'
p435
F0.1599999999999997
tp436
a(S'SHLM\n'
p437
F0.16000000000000014
tp438
a(S'MSON\n'
p439
F0.16000000000000014
tp440
a(S'NPBC\n'
p441
F0.16000000000000014
tp442
a(S'PCH\n'
p443
F0.16000000000000014
tp444
a(S'XRAY\n'
p445
F0.1600000000000037
tp446
a(S'PAYX\n'
p447
F0.16999999999999815
tp448
a(S'TLF\n'
p449
F0.16999999999999993
tp450
a(S'FCLF\n'
p451
F0.16999999999999993
tp452
a(S'NVSL\n'
p453
F0.16999999999999993
tp454
a(S'VASC\n'
p455
F0.16999999999999993
tp456
a(S'CPST\n'
p457
F0.16999999999999993
tp458
a(S'GNMK\n'
p459
F0.16999999999999993
tp460
a(S'SIRI\n'
p461
F0.17000000000000015
tp462
a(S'CGO\n'
p463
F0.1700000000000017
tp464
a(S'PSCF\n'
p465
F0.17999999999999972
tp466
a(S'SYPR\n'
p467
F0.17999999999999972
tp468
a(S'GLBZ\n'
p469
F0.17999999999999972
tp470
a(S'PFIN\n'
p471
F0.18000000000000016
tp472
a(S'HEOP\n'
p473
F0.18000000000000016
tp474
a(S'BEAV\n'
p475
F0.18999999999999773
tp476
a(S'FISV\n'
p477
F0.18999999999999773
tp478
a(S'TSON\n'
p479
F0.18999999999999972
tp480
a(S'HDSN\n'
p481
F0.18999999999999995
tp482
a(S'CBMX\n'
p483
F0.18999999999999995
tp484
a(S'ASBI\n'
p485
F0.18999999999999995
tp486
a(S'TAIT\n'
p487
F0.19000000000000017
tp488
a(S'IRDMZ\n'
p489
F0.19000000000000017
tp490
a(S'GSBC\n'
p491
F0.19000000000000128
tp492
a(S'EMCF\n'
p493
F0.1999999999999993
tp494
a(S'DVAX\n'
p495
F0.19999999999999973
tp496
a(S'IMMU\n'
p497
F0.19999999999999973
tp498
a(S'TSBK\n'
p499
F0.20000000000000018
tp500
a(S'PRPH\n'
p501
F0.20000000000000018
tp502
a(S'COBK\n'
p503
F0.20000000000000107
tp504
a(S'ANNB\n'
p505
F0.20999999999999952
tp506
a(S'BNSO\n'
p507
F0.20999999999999996
tp508
a(S'ARNA\n'
p509
F0.20999999999999996
tp510
a(S'SGYP\n'
p511
F0.20999999999999996
tp512
a(S'PULB\n'
p513
F0.20999999999999996
tp514
a(S'DSGX\n'
p515
F0.20999999999999996
tp516
a(S'MPB\n'
p517
F0.20999999999999996
tp518
a(S'SMED\n'
p519
F0.20999999999999996
tp520
a(S'BCBP\n'
p521
F0.21000000000000085
tp522
a(S'ATVI\n'
p523
F0.21000000000000085
tp524
a(S'QQQX\n'
p525
F0.21000000000000085
tp526
a(S'KOPN\n'
p527
F0.21999999999999975
tp528
a(S'CERS\n'
p529
F0.21999999999999975
tp530
a(S'LXRX\n'
p531
F0.21999999999999997
tp532
a(S'PRAN\n'
p533
F0.21999999999999997
tp534
a(S'MDH\n'
p535
F0.2200000000000002
tp536
a(S'CRTX\n'
p537
F0.22000000000000064
tp538
a(S'LNBB\n'
p539
F0.22000000000000064
tp540
a(S'USAT\n'
p541
F0.22999999999999998
tp542
a(S'DRAD\n'
p543
F0.22999999999999998
tp544
a(S'SIGI\n'
p545
F0.23000000000000043
tp546
a(S'BDE\n'
p547
F0.23000000000000043
tp548
a(S'MYL\n'
p549
F0.23000000000000043
tp550
a(S'CLMT\n'
p551
F0.23999999999999844
tp552
a(S'MELA\n'
p553
F0.23999999999999977
tp554
a(S'OBCI\n'
p555
F0.24
tp556
a(S'ROIA\n'
p557
F0.24
tp558
a(S'SLP\n'
p559
F0.2400000000000002
tp560
a(S'KINS\n'
p561
F0.2400000000000002
tp562
a(S'AMRN\n'
p563
F0.2400000000000002
tp564
a(S'TASR\n'
p565
F0.2400000000000002
tp566
a(S'ISBC\n'
p567
F0.2400000000000002
tp568
a(S'HARL\n'
p569
F0.2400000000000002
tp570
a(S'IBCA\n'
p571
F0.2400000000000002
tp572
a(S'WLB\n'
p573
F0.25
tp574
a(S'CXDC\n'
p575
F0.25
tp576
a(S'HBOS\n'
p577
F0.25
tp578
a(S'UCFC\n'
p579
F0.25
tp580
a(S'BIOC\n'
p581
F0.25
tp582
a(S'KFFB\n'
p583
F0.25
tp584
a(S'LPNT\n'
p585
F0.259999999999998
tp586
a(S'LOAN\n'
p587
F0.26
tp588
a(S'NINE\n'
p589
F0.26
tp590
a(S'GRVY\n'
p591
F0.26
tp592
a(S'PTSX\n'
p593
F0.26
tp594
a(S'SENEB\n'
p595
F0.26000000000000156
tp596
a(S'RUTH\n'
p597
F0.2699999999999996
tp598
a(S'ROMA\n'
p599
F0.2699999999999996
tp600
a(S'RIGL\n'
p601
F0.2699999999999996
tp602
a(S'SIEB\n'
p603
F0.27
tp604
a(S'GLDC\n'
p605
F0.27
tp606
a(S'STSI\n'
p607
F0.27000000000000024
tp608
a(S'DGICA\n'
p609
F0.27999999999999936
tp610
a(S'SINO\n'
p611
F0.2799999999999998
tp612
a(S'PLNR\n'
p613
F0.28
tp614
a(S'ASRV\n'
p615
F0.28
tp616
a(S'EXTR\n'
p617
F0.28000000000000025
tp618
a(S'ARKR\n'
p619
F0.28000000000000114
tp620
a(S'FFIN\n'
p621
F0.28999999999999915
tp622
a(S'TRMK\n'
p623
F0.28999999999999915
tp624
a(S'CVCY\n'
p625
F0.29000000000000004
tp626
a(S'SNTS\n'
p627
F0.29000000000000004
tp628
a(S'IBCP\n'
p629
F0.29000000000000004
tp630
a(S'ATRC\n'
p631
F0.29999999999999893
tp632
a(S'OUTD\n'
p633
F0.2999999999999998
tp634
a(S'EVOL\n'
p635
F0.2999999999999998
tp636
a(S'DNBF\n'
p637
F0.3000000000000007
tp638
a(S'BHLB\n'
p639
F0.3000000000000007
tp640
a(S'WMGI\n'
p641
F0.3000000000000007
tp642
a(S'PEBO\n'
p643
F0.3099999999999987
tp644
a(S'LMIA\n'
p645
F0.3099999999999987
tp646
a(S'EWBC\n'
p647
F0.3099999999999987
tp648
a(S'ZIOP\n'
p649
F0.3099999999999996
tp650
a(S'ALOT\n'
p651
F0.3099999999999996
tp652
a(S'WSB\n'
p653
F0.31000000000000005
tp654
a(S'INOC\n'
p655
F0.31000000000000005
tp656
a(S'HBNC\n'
p657
F0.3100000000000023
tp658
a(S'XWES\n'
p659
F0.31999999999999984
tp660
a(S'SCON\n'
p661
F0.32000000000000006
tp662
a(S'TOFC\n'
p663
F0.3200000000000003
tp664
a(S'BBEP\n'
p665
F0.3299999999999983
tp666
a(S'WEYS\n'
p667
F0.3299999999999983
tp668
a(S'CYBI\n'
p669
F0.33
tp670
a(S'RVSB\n'
p671
F0.33000000000000007
tp672
a(S'LBIX\n'
p673
F0.33000000000000007
tp674
a(S'RELL\n'
p675
F0.33000000000000007
tp676
a(S'NCTY\n'
p677
F0.33999999999999986
tp678
a(S'JSM\n'
p679
F0.33999999999999986
tp680
a(S'CNMD\n'
p681
F0.33999999999999986
tp682
a(S'DGII\n'
p683
F0.33999999999999986
tp684
a(S'OBAF\n'
p685
F0.33999999999999986
tp686
a(S'PRCP\n'
p687
F0.34000000000000075
tp688
a(S'QADB\n'
p689
F0.34999999999999964
tp690
a(S'PSEC\n'
p691
F0.34999999999999964
tp692
a(S'PSBH\n'
p693
F0.34999999999999964
tp694
a(S'BWOWW\n'
p695
F0.35
tp696
a(S'RNIN\n'
p697
F0.3500000000000001
tp698
a(S'FCAL\n'
p699
F0.3599999999999999
tp700
a(S'ELSE\n'
p701
F0.3599999999999999
tp702
a(S'PRKR\n'
p703
F0.36
tp704
a(S'CPSS\n'
p705
F0.36
tp706
a(S'ESMC\n'
p707
F0.3600000000000001
tp708
a(S'STB\n'
p709
F0.3600000000000003
tp710
a(S'FULT\n'
p711
F0.3600000000000012
tp712
a(S'TBNK\n'
p713
F0.36999999999999744
tp714
a(S'EMMSP\n'
p715
F0.3699999999999992
tp716
a(S'QCCO\n'
p717
F0.36999999999999966
tp718
a(S'FONR\n'
p719
F0.3699999999999999
tp720
a(S'SNFCA\n'
p721
F0.3699999999999999
tp722
a(S'PLAB\n'
p723
F0.3700000000000001
tp724
a(S'MNDO\n'
p725
F0.3700000000000001
tp726
a(S'ISSI\n'
p727
F0.370000000000001
tp728
a(S'EXLS\n'
p729
F0.370000000000001
tp730
a(S'RMTI\n'
p731
F0.370000000000001
tp732
a(S'TFSL\n'
p733
F0.379999999999999
tp734
a(S'HBNK\n'
p735
F0.379999999999999
tp736
a(S'EDGW\n'
p737
F0.3799999999999999
tp738
a(S'INAP\n'
p739
F0.3799999999999999
tp740
a(S'BUSE\n'
p741
F0.3799999999999999
tp742
a(S'CIDM\n'
p743
F0.3799999999999999
tp744
a(S'MNRK\n'
p745
F0.3799999999999999
tp746
a(S'SYMX\n'
p747
F0.3800000000000001
tp748
a(S'CTHR\n'
p749
F0.38000000000000034
tp750
a(S'PDEX\n'
p751
F0.3900000000000001
tp752
a(S'CLRO\n'
p753
F0.3900000000000001
tp754
a(S'SONS\n'
p755
F0.3900000000000001
tp756
a(S'SLRC\n'
p757
F0.39000000000000057
tp758
a(S'ARQL\n'
p759
F0.39000000000000057
tp760
a(S'EEFT\n'
p761
F0.39000000000000057
tp762
a(S'HAVNP\n'
p763
F0.39000000000000057
tp764
a(S'RICK\n'
p765
F0.39000000000000057
tp766
a(S'SPBC\n'
p767
F0.3999999999999986
tp768
a(S'ALRN\n'
p769
F0.3999999999999999
tp770
a(S'CAFI\n'
p771
F0.3999999999999999
tp772
a(S'LTON\n'
p773
F0.40000000000000013
tp774
a(S'CSQ\n'
p775
F0.40000000000000036
tp776
a(S'EFII\n'
p777
F0.40000000000000036
tp778
a(S'CIMT\n'
p779
F0.41000000000000014
tp780
a(S'FES\n'
p781
F0.41000000000000014
tp782
a(S'SNPS\n'
p783
F0.41999999999999815
tp784
a(S'GENC\n'
p785
F0.41999999999999993
tp786
a(S'ACTS\n'
p787
F0.41999999999999993
tp788
a(S'MFNC\n'
p789
F0.41999999999999993
tp790
a(S'ADAT\n'
p791
F0.42000000000000015
tp792
a(S'WSCI\n'
p793
F0.4200000000000008
tp794
a(S'DISCA\n'
p795
F0.4200000000000017
tp796
a(S'FLWS\n'
p797
F0.4299999999999997
tp798
a(S'ARCW\n'
p799
F0.4299999999999997
tp800
a(S'CMVT\n'
p801
F0.4299999999999997
tp802
a(S'SPRO\n'
p803
F0.4299999999999997
tp804
a(S'PVFC\n'
p805
F0.42999999999999994
tp806
a(S'ULGX\n'
p807
F0.43000000000000005
tp808
a(S'ABCD\n'
p809
F0.43000000000000016
tp810
a(S'VRTB\n'
p811
F0.43000000000000016
tp812
a(S'FCFC\n'
p813
F0.4399999999999995
tp814
a(S'EGHT\n'
p815
F0.43999999999999995
tp816
a(S'RBPAA\n'
p817
F0.44999999999999996
tp818
a(S'HOLL\n'
p819
F0.44999999999999996
tp820
a(S'ATRS\n'
p821
F0.4500000000000002
tp822
a(S'MBND\n'
p823
F0.4500000000000002
tp824
a(S'ASFI\n'
p825
F0.45000000000000107
tp826
a(S'LINTA\n'
p827
F0.4599999999999991
tp828
a(S'GLUU\n'
p829
F0.45999999999999996
tp830
a(S'HMNY\n'
p831
F0.4600000000000004
tp832
a(S'GSIG\n'
p833
F0.46999999999999886
tp834
a(S'RADA\n'
p835
F0.47
tp836
a(S'AVCA\n'
p837
F0.47000000000000064
tp838
a(S'CHFC\n'
p839
F0.4700000000000024
tp840
a(S'GTXI\n'
p841
F0.48
tp842
a(S'WVVI\n'
p843
F0.48
tp844
a(S'NICE\n'
p845
F0.4899999999999949
tp846
a(S'QQXT\n'
p847
F0.48999999999999844
tp848
a(S'DITC\n'
p849
F0.49
tp850
a(S'MAGS\n'
p851
F0.4900000000000002
tp852
a(S'AFCE\n'
p853
F0.4900000000000002
tp854
a(S'SMTX\n'
p855
F0.4900000000000002
tp856
a(S'VSCI\n'
p857
F0.4900000000000002
tp858
a(S'OSBC\n'
p859
F0.5
tp860
a(S'AUBN\n'
p861
F0.5
tp862
a(S'FNHC\n'
p863
F0.5
tp864
a(S'PLCC\n'
p865
F0.5
tp866
a(S'IBCPO\n'
p867
F0.5
tp868
a(S'ATEA\n'
p869
F0.5
tp870
a(S'FACE\n'
p871
F0.5
tp872
a(S'ARTNA\n'
p873
F0.509999999999998
tp874
a(S'HFFC\n'
p875
F0.5099999999999998
tp876
a(S'NAUH\n'
p877
F0.5099999999999998
tp878
a(S'AFFX\n'
p879
F0.5099999999999998
tp880
a(S'SCMP\n'
p881
F0.5099999999999998
tp882
a(S'ARTX\n'
p883
F0.51
tp884
a(S'TRST\n'
p885
F0.5199999999999996
tp886
a(S'FLOW\n'
p887
F0.5199999999999996
tp888
a(S'VITC\n'
p889
F0.5199999999999996
tp890
a(S'TTHI\n'
p891
F0.5199999999999998
tp892
a(S'PBHC\n'
p893
F0.5200000000000014
tp894
a(S'SCHL\n'
p895
F0.5299999999999976
tp896
a(S'BRCD\n'
p897
F0.5299999999999994
tp898
a(S'CTCH\n'
p899
F0.5299999999999998
tp900
a(S'EONC\n'
p901
F0.53
tp902
a(S'DXYN\n'
p903
F0.5300000000000002
tp904
a(S'SLMAP\n'
p905
F0.5399999999999991
tp906
a(S'PDLI\n'
p907
F0.54
tp908
a(S'CORT\n'
p909
F0.54
tp910
a(S'AFCB\n'
p911
F0.5400000000000009
tp912
a(S'CHFN\n'
p913
F0.5400000000000009
tp914
a(S'TAYCP\n'
p915
F0.5499999999999972
tp916
a(S'PRGX\n'
p917
F0.5499999999999998
tp918
a(S'SDBT\n'
p919
F0.5499999999999998
tp920
a(S'OXBT\n'
p921
F0.55
tp922
a(S'FNLC\n'
p923
F0.5500000000000007
tp924
a(S'CHW\n'
p925
F0.5599999999999996
tp926
a(S'TNAV\n'
p927
F0.5599999999999996
tp928
a(S'PNBK\n'
p929
F0.56
tp930
a(S'CPAH\n'
p931
F0.56
tp932
a(S'MEMS\n'
p933
F0.56
tp934
a(S'PRXI\n'
p935
F0.5600000000000003
tp936
a(S'LSBK\n'
p937
F0.5600000000000005
tp938
a(S'CHI\n'
p939
F0.5600000000000005
tp940
a(S'HWCC\n'
p941
F0.5600000000000005
tp942
a(S'PCTI\n'
p943
F0.5699999999999994
tp944
a(S'ASTC\n'
p945
F0.5699999999999998
tp946
a(S'NEPT\n'
p947
F0.5699999999999998
tp948
a(S'OTTR\n'
p949
F0.5700000000000003
tp950
a(S'NTIC\n'
p951
F0.5700000000000003
tp952
a(S'MMUS\n'
p953
F0.5800000000000001
tp954
a(S'NEWS\n'
p955
F0.5800000000000001
tp956
a(S'ELOS\n'
p957
F0.5800000000000001
tp958
a(S'LINTB\n'
p959
F0.5800000000000001
tp960
a(S'ROCK\n'
p961
F0.5800000000000001
tp962
a(S'CECE\n'
p963
F0.5800000000000001
tp964
a(S'THLD\n'
p965
F0.5800000000000001
tp966
a(S'PRXL\n'
p967
F0.5800000000000018
tp968
a(S'BKYF\n'
p969
F0.5800000000000018
tp970
a(S'MOFG\n'
p971
F0.5899999999999999
tp972
a(S'FRME\n'
p973
F0.5899999999999999
tp974
a(S'BLDP\n'
p975
F0.5899999999999999
tp976
a(S'GBDC\n'
p977
F0.5899999999999999
tp978
a(S'FCTY\n'
p979
F0.5899999999999999
tp980
a(S'NETE\n'
p981
F0.59
tp982
a(S'GUID\n'
p983
F0.5999999999999996
tp984
a(S'FFKT\n'
p985
F0.5999999999999996
tp986
a(S'RELV\n'
p987
F0.6000000000000001
tp988
a(S'VBFC\n'
p989
F0.6000000000000001
tp990
a(S'QQQ\n'
p991
F0.6000000000000014
tp992
a(S'MBRG\n'
p993
F0.6000000000000014
tp994
a(S'FITBP\n'
p995
F0.6099999999999852
tp996
a(S'MLNK\n'
p997
F0.6099999999999994
tp998
a(S'NOVB\n'
p999
F0.6099999999999994
tp1000
a(S'SLXP\n'
p1001
F0.6099999999999994
tp1002
a(S'NAVR\n'
p1003
F0.6099999999999999
tp1004
a(S'IRDM\n'
p1005
F0.6100000000000003
tp1006
a(S'FFNM\n'
p1007
F0.6100000000000003
tp1008
a(S'PBCT\n'
p1009
F0.6100000000000012
tp1010
a(S'MTSL\n'
p1011
F0.6199999999999999
tp1012
a(S'HPOL\n'
p1013
F0.62
tp1014
a(S'PVSW\n'
p1015
F0.6200000000000001
tp1016
a(S'RCMT\n'
p1017
F0.6200000000000001
tp1018
a(S'IPXL\n'
p1019
F0.629999999999999
tp1020
a(S'WILN\n'
p1021
F0.6299999999999999
tp1022
a(S'RFIL\n'
p1023
F0.6299999999999999
tp1024
a(S'CZFC\n'
p1025
F0.6299999999999999
tp1026
a(S'RMKR\n'
p1027
F0.63
tp1028
a(S'ABVA\n'
p1029
F0.6300000000000003
tp1030
a(S'SALM\n'
p1031
F0.6300000000000003
tp1032
a(S'PTEN\n'
p1033
F0.6300000000000026
tp1034
a(S'SNAK\n'
p1035
F0.6399999999999997
tp1036
a(S'TSRI\n'
p1037
F0.6399999999999997
tp1038
a(S'IKAN\n'
p1039
F0.6399999999999999
tp1040
a(S'HILL\n'
p1041
F0.6399999999999999
tp1042
a(S'SWHC\n'
p1043
F0.6400000000000001
tp1044
a(S'GFN\n'
p1045
F0.6400000000000001
tp1046
a(S'HERO\n'
p1047
F0.6400000000000006
tp1048
a(S'INTL\n'
p1049
F0.6400000000000006
tp1050
a(S'IEP\n'
p1051
F0.6499999999999986
tp1052
a(S'YAVY\n'
p1053
F0.6499999999999997
tp1054
a(S'AEHR\n'
p1055
F0.6499999999999999
tp1056
a(S'WTSLA\n'
p1057
F0.6500000000000004
tp1058
a(S'BBCN\n'
p1059
F0.6500000000000004
tp1060
a(S'FULL\n'
p1061
F0.6500000000000004
tp1062
a(S'SYBTP\n'
p1063
F0.6500000000000004
tp1064
a(S'CHCO\n'
p1065
F0.6500000000000057
tp1066
a(S'PRLS\n'
p1067
F0.6599999999999997
tp1068
a(S'JACK\n'
p1069
F0.6600000000000001
tp1070
a(S'SHFL\n'
p1071
F0.6600000000000001
tp1072
a(S'SGMS\n'
p1073
F0.6600000000000001
tp1074
a(S'PWOD\n'
p1075
F0.6600000000000037
tp1076
a(S'GIFI\n'
p1077
F0.6699999999999982
tp1078
a(S'KRNY\n'
p1079
F0.6699999999999999
tp1080
a(S'MYGN\n'
p1081
F0.6799999999999997
tp1082
a(S'LNCE\n'
p1083
F0.6799999999999997
tp1084
a(S'RDI\n'
p1085
F0.6799999999999997
tp1086
a(S'NHTB\n'
p1087
F0.6799999999999997
tp1088
a(S'GABC\n'
p1089
F0.6799999999999997
tp1090
a(S'VONV\n'
p1091
F0.6799999999999997
tp1092
a(S'BOSC\n'
p1093
F0.6799999999999999
tp1094
a(S'CRAY\n'
p1095
F0.6800000000000006
tp1096
a(S'RUSHA\n'
p1097
F0.6800000000000033
tp1098
a(S'USTR\n'
p1099
F0.6800000000000033
tp1100
a(S'BKSC\n'
p1101
F0.6899999999999995
tp1102
a(S'LAKE\n'
p1103
F0.6899999999999995
tp1104
a(S'JCS\n'
p1105
F0.6899999999999995
tp1106
a(S'MAXY\n'
p1107
F0.6900000000000002
tp1108
a(S'SSFN\n'
p1109
F0.6900000000000004
tp1110
a(S'CPIX\n'
p1111
F0.6900000000000004
tp1112
a(S'VONG\n'
p1113
F0.6999999999999957
tp1114
a(S'NEWT\n'
p1115
F0.7000000000000002
tp1116
a(S'CLRX\n'
p1117
F0.7000000000000002
tp1118
a(S'QDEL\n'
p1119
F0.7000000000000011
tp1120
a(S'CLBH\n'
p1121
F0.71
tp1122
a(S'QLTI\n'
p1123
F0.71
tp1124
a(S'HELE\n'
p1125
F0.7100000000000009
tp1126
a(S'EXAR\n'
p1127
F0.7199999999999998
tp1128
a(S'ANTH\n'
p1129
F0.7199999999999998
tp1130
a(S'CFFN\n'
p1131
F0.7200000000000006
tp1132
a(S'NFBK\n'
p1133
F0.7299999999999986
tp1134
a(S'LION\n'
p1135
F0.7299999999999995
tp1136
a(S'DYAX\n'
p1137
F0.7299999999999998
tp1138
a(S'GIGM\n'
p1139
F0.7300000000000001
tp1140
a(S'CHYR\n'
p1141
F0.7300000000000002
tp1142
a(S'RBCAA\n'
p1143
F0.7300000000000004
tp1144
a(S'DGICB\n'
p1145
F0.7300000000000004
tp1146
a(S'GNTX\n'
p1147
F0.7399999999999984
tp1148
a(S'CYCCP\n'
p1149
F0.7399999999999998
tp1150
a(S'COSI\n'
p1151
F0.74
tp1152
a(S'FRED\n'
p1153
F0.7400000000000002
tp1154
a(S'MEAD\n'
p1155
F0.7400000000000002
tp1156
a(S'PMBC\n'
p1157
F0.7400000000000002
tp1158
a(S'YOD\n'
p1159
F0.75
tp1160
a(S'DELL\n'
p1161
F0.75
tp1162
a(S'MBTF\n'
p1163
F0.75
tp1164
a(S'CUBA\n'
p1165
F0.75
tp1166
a(S'RUSHB\n'
p1167
F0.75
tp1168
a(S'CYBE\n'
p1169
F0.7500000000000009
tp1170
a(S'OPTR\n'
p1171
F0.7599999999999998
tp1172
a(S'NMRX\n'
p1173
F0.7599999999999998
tp1174
a(S'RIVR\n'
p1175
F0.7599999999999998
tp1176
a(S'NSSC\n'
p1177
F0.76
tp1178
a(S'ARRS\n'
p1179
F0.7699999999999996
tp1180
a(S'SCVL\n'
p1181
F0.7699999999999996
tp1182
a(S'ECTE\n'
p1183
F0.7699999999999998
tp1184
a(S'NOOF\n'
p1185
F0.77
tp1186
a(S'MARK\n'
p1187
F0.77
tp1188
a(S'BOFI\n'
p1189
F0.7799999999999994
tp1190
a(S'FALC\n'
p1191
F0.7799999999999998
tp1192
a(S'YHOO\n'
p1193
F0.7800000000000011
tp1194
a(S'PBIP\n'
p1195
F0.79
tp1196
a(S'DLIA\n'
p1197
F0.79
tp1198
a(S'BOCH\n'
p1199
F0.7900000000000005
tp1200
a(S'ABCB\n'
p1201
F0.7900000000000009
tp1202
a(S'MPWR\n'
p1203
F0.7999999999999989
tp1204
a(S'ZLCS\n'
p1205
F0.7999999999999998
tp1206
a(S'PLXT\n'
p1207
F0.7999999999999998
tp1208
a(S'LOOK\n'
p1209
F0.7999999999999998
tp1210
a(S'DFR\n'
p1211
F0.7999999999999998
tp1212
a(S'MNGA\n'
p1213
F0.7999999999999998
tp1214
a(S'BIDZ\n'
p1215
F0.8
tp1216
a(S'PTEK\n'
p1217
F0.8
tp1218
a(S'GLCH\n'
p1219
F0.8
tp1220
a(S'OCLS\n'
p1221
F0.8
tp1222
a(S'PSTI\n'
p1223
F0.8000000000000003
tp1224
a(S'CVLY\n'
p1225
F0.8000000000000007
tp1226
a(S'BNCL\n'
p1227
F0.8000000000000007
tp1228
a(S'ADI\n'
p1229
F0.8000000000000043
tp1230
a(S'PSCD\n'
p1231
F0.8099999999999987
tp1232
a(S'ACNB\n'
p1233
F0.8099999999999987
tp1234
a(S'HSON\n'
p1235
F0.8099999999999996
tp1236
a(S'FOLD\n'
p1237
F0.81
tp1238
a(S'JFBI\n'
p1239
F0.81
tp1240
a(S'UPIP\n'
p1241
F0.81
tp1242
a(S'FMFC\n'
p1243
F0.81
tp1244
a(S'NPSP\n'
p1245
F0.8100000000000005
tp1246
a(S'EBMT\n'
p1247
F0.8100000000000005
tp1248
a(S'VSBN\n'
p1249
F0.8100000000000005
tp1250
a(S'BOLT\n'
p1251
F0.8199999999999985
tp1252
a(S'CWST\n'
p1253
F0.8199999999999994
tp1254
a(S'MHLD\n'
p1255
F0.8199999999999994
tp1256
a(S'CWCO\n'
p1257
F0.8200000000000003
tp1258
a(S'NFSB\n'
p1259
F0.8200000000000003
tp1260
a(S'UTSI\n'
p1261
F0.8200000000000003
tp1262
a(S'ASTM\n'
p1263
F0.8299999999999998
tp1264
a(S'TWMC\n'
p1265
F0.8299999999999998
tp1266
a(S'DFZ\n'
p1267
F0.8300000000000001
tp1268
a(S'FCCO\n'
p1269
F0.8300000000000001
tp1270
a(S'FEIM\n'
p1271
F0.8300000000000001
tp1272
a(S'BFLY\n'
p1273
F0.8300000000000001
tp1274
a(S'CZWI\n'
p1275
F0.8300000000000001
tp1276
a(S'LPSB\n'
p1277
F0.830000000000001
tp1278
a(S'LIME\n'
p1279
F0.8399999999999994
tp1280
a(S'SLM\n'
p1281
F0.8399999999999999
tp1282
a(S'CBNJ\n'
p1283
F0.8399999999999999
tp1284
a(S'UFPT\n'
p1285
F0.8399999999999999
tp1286
a(S'SMBL\n'
p1287
F0.8400000000000007
tp1288
a(S'RMCF\n'
p1289
F0.8400000000000016
tp1290
a(S'WEN\n'
p1291
F0.8499999999999996
tp1292
a(S'BYFC\n'
p1293
F0.8500000000000001
tp1294
a(S'CTWS\n'
p1295
F0.8500000000000014
tp1296
a(S'ORIT\n'
p1297
F0.8599999999999994
tp1298
a(S'SASR\n'
p1299
F0.8599999999999994
tp1300
a(S'WDFC\n'
p1301
F0.8599999999999994
tp1302
a(S'NDAQ\n'
p1303
F0.8599999999999994
tp1304
a(S'CPTS\n'
p1305
F0.8599999999999994
tp1306
a(S'EMCI\n'
p1307
F0.8599999999999994
tp1308
a(S'DRAM\n'
p1309
F0.8599999999999999
tp1310
a(S'SYNM\n'
p1311
F0.8600000000000001
tp1312
a(S'PCO\n'
p1313
F0.8600000000000001
tp1314
a(S'TST\n'
p1315
F0.8600000000000003
tp1316
a(S'PMD\n'
p1317
F0.8600000000000003
tp1318
a(S'HOTT\n'
p1319
F0.8600000000000003
tp1320
a(S'KTCC\n'
p1321
F0.8699999999999992
tp1322
a(S'HFWA\n'
p1323
F0.8699999999999992
tp1324
a(S'ASTX\n'
p1325
F0.8699999999999999
tp1326
a(S'BLIN\n'
p1327
F0.87
tp1328
a(S'RDNT\n'
p1329
F0.8700000000000001
tp1330
a(S'STEI\n'
p1331
F0.8700000000000001
tp1332
a(S'SUMR\n'
p1333
F0.8700000000000001
tp1334
a(S'NATI\n'
p1335
F0.870000000000001
tp1336
a(S'WMAR\n'
p1337
F0.870000000000001
tp1338
a(S'SAPE\n'
p1339
F0.879999999999999
tp1340
a(S'TIVO\n'
p1341
F0.879999999999999
tp1342
a(S'CMTL\n'
p1343
F0.879999999999999
tp1344
a(S'AMAG\n'
p1345
F0.879999999999999
tp1346
a(S'XRSC\n'
p1347
F0.8799999999999999
tp1348
a(S'CKEC\n'
p1349
F0.8799999999999999
tp1350
a(S'LPTH\n'
p1351
F0.8799999999999999
tp1352
a(S'ATMI\n'
p1353
F0.8800000000000026
tp1354
a(S'TINY\n'
p1355
F0.8899999999999997
tp1356
a(S'BASI\n'
p1357
F0.8900000000000001
tp1358
a(S'TPGI\n'
p1359
F0.8900000000000006
tp1360
a(S'FFBC\n'
p1361
F0.8900000000000006
tp1362
a(S'WAYN\n'
p1363
F0.8900000000000006
tp1364
a(S'MFLR\n'
p1365
F0.8999999999999995
tp1366
a(S'CRFN\n'
p1367
F0.8999999999999999
tp1368
a(S'CSPI\n'
p1369
F0.8999999999999999
tp1370
a(S'MTSN\n'
p1371
F0.8999999999999999
tp1372
a(S'CFBK\n'
p1373
F0.8999999999999999
tp1374
a(S'ATEC\n'
p1375
F0.9000000000000001
tp1376
a(S'SSBI\n'
p1377
F0.9099999999999993
tp1378
a(S'YDNT\n'
p1379
F0.9100000000000001
tp1380
a(S'HEES\n'
p1381
F0.9100000000000001
tp1382
a(S'STAN\n'
p1383
F0.9199999999999982
tp1384
a(S'ATNY\n'
p1385
F0.9199999999999995
tp1386
a(S'SCMR\n'
p1387
F0.9199999999999999
tp1388
a(S'MWIV\n'
p1389
F0.9200000000000017
tp1390
a(S'FORR\n'
p1391
F0.9200000000000017
tp1392
a(S'FUND\n'
p1393
F0.9299999999999997
tp1394
a(S'UNTD\n'
p1395
F0.9299999999999997
tp1396
a(S'ISCA\n'
p1397
F0.9299999999999997
tp1398
a(S'ERIC\n'
p1399
F0.9299999999999997
tp1400
a(S'JCTCF\n'
p1401
F0.9299999999999997
tp1402
a(S'NBBC\n'
p1403
F0.9299999999999997
tp1404
a(S'GSAT\n'
p1405
F0.9299999999999999
tp1406
a(S'HNSN\n'
p1407
F0.9300000000000002
tp1408
a(S'NVMI\n'
p1409
F0.9300000000000006
tp1410
a(S'ANAC\n'
p1411
F0.9399999999999995
tp1412
a(S'DAVE\n'
p1413
F0.9399999999999995
tp1414
a(S'PFSW\n'
p1415
F0.9400000000000004
tp1416
a(S'IRET\n'
p1417
F0.9499999999999993
tp1418
a(S'CYNO\n'
p1419
F0.9499999999999993
tp1420
a(S'JMBA\n'
p1421
F0.9499999999999997
tp1422
a(S'MSLI\n'
p1423
F0.95
tp1424
a(S'REED\n'
p1425
F0.95
tp1426
a(S'SPPR\n'
p1427
F0.9500000000000001
tp1428
a(S'OVLY\n'
p1429
F0.9500000000000002
tp1430
a(S'GTIM\n'
p1431
F0.9500000000000002
tp1432
a(S'ATHX\n'
p1433
F0.9500000000000002
tp1434
a(S'GFED\n'
p1435
F0.9500000000000002
tp1436
a(S'SYNL\n'
p1437
F0.9500000000000011
tp1438
a(S'ICFI\n'
p1439
F0.9599999999999973
tp1440
a(S'TXCC\n'
p1441
F0.96
tp1442
a(S'HMNF\n'
p1443
F0.96
tp1444
a(S'MSEX\n'
p1445
F0.9600000000000009
tp1446
a(S'MMSI\n'
p1447
F0.9600000000000009
tp1448
a(S'LEDR\n'
p1449
F0.97
tp1450
a(S'MBWM\n'
p1451
F0.9700000000000006
tp1452
a(S'EFUT\n'
p1453
F0.9700000000000006
tp1454
a(S'AMIC\n'
p1455
F0.9799999999999995
tp1456
a(S'GENT\n'
p1457
F0.9799999999999995
tp1458
a(S'RGEN\n'
p1459
F0.98
tp1460
a(S'SVBI\n'
p1461
F0.98
tp1462
a(S'NKBP\n'
p1463
F0.9800000000000004
tp1464
a(S'CFNL\n'
p1465
F0.9800000000000004
tp1466
a(S'SPNS\n'
p1467
F0.9899999999999998
tp1468
a(S'OSHC\n'
p1469
F0.9900000000000002
tp1470
a(S'HYGS\n'
p1471
F0.9900000000000002
tp1472
a(S'GBLI\n'
p1473
F0.990000000000002
tp1474
a(S'VGSH\n'
p1475
F0.990000000000002
tp1476
a(S'TAST\n'
p1477
F1.0
tp1478
a(S'IXYS\n'
p1479
F1.0
tp1480
a(S'BKEP\n'
p1481
F1.0
tp1482
a(S'NYMT\n'
p1483
F1.0
tp1484
a(S'LFVN\n'
p1485
F1.0
tp1486
a(S'FABK\n'
p1487
F1.0
tp1488
a(S'TMNG\n'
p1489
F1.0
tp1490
a(S'CTEL\n'
p1491
F1.0000000000000004
tp1492
a(S'PENX\n'
p1493
F1.0099999999999998
tp1494
a(S'WFD\n'
p1495
F1.0099999999999998
tp1496
a(S'BPFH\n'
p1497
F1.0099999999999998
tp1498
a(S'VIRC\n'
p1499
F1.01
tp1500
a(S'FRBK\n'
p1501
F1.01
tp1502
a(S'WSBC\n'
p1503
F1.0199999999999996
tp1504
a(S'BIOL\n'
p1505
F1.0199999999999998
tp1506
a(S'CLSN\n'
p1507
F1.0200000000000002
tp1508
a(S'CCUR\n'
p1509
F1.0299999999999998
tp1510
a(S'LTRX\n'
p1511
F1.0299999999999998
tp1512
a(S'SPCHA\n'
p1513
F1.0299999999999998
tp1514
a(S'SPTN\n'
p1515
F1.0300000000000011
tp1516
a(S'PDCO\n'
p1517
F1.0399999999999991
tp1518
a(S'PSCE\n'
p1519
F1.0399999999999991
tp1520
a(S'FHCO\n'
p1521
F1.04
tp1522
a(S'TISA\n'
p1523
F1.04
tp1524
a(S'CART\n'
p1525
F1.04
tp1526
a(S'MALL\n'
p1527
F1.04
tp1528
a(S'INOD\n'
p1529
F1.04
tp1530
a(S'FUNC\n'
p1531
F1.04
tp1532
a(S'DSWL\n'
p1533
F1.0499999999999998
tp1534
a(S'LACO\n'
p1535
F1.0499999999999998
tp1536
a(S'ARRY\n'
p1537
F1.0499999999999998
tp1538
a(S'AXAS\n'
p1539
F1.0499999999999998
tp1540
a(S'PXLW\n'
p1541
F1.0500000000000003
tp1542
a(S'AHPI\n'
p1543
F1.0500000000000003
tp1544
a(S'RSOL\n'
p1545
F1.0600000000000003
tp1546
a(S'QQEW\n'
p1547
F1.0600000000000023
tp1548
a(S'SPIL\n'
p1549
F1.0699999999999994
tp1550
a(S'AEY\n'
p1551
F1.0699999999999998
tp1552
a(S'TEAR\n'
p1553
F1.0699999999999998
tp1554
a(S'OVRL\n'
p1555
F1.07
tp1556
a(S'RGDX\n'
p1557
F1.07
tp1558
a(S'MNRKP\n'
p1559
F1.0799999999999983
tp1560
a(S'DAEG\n'
p1561
F1.0799999999999998
tp1562
a(S'NWBI\n'
p1563
F1.08
tp1564
a(S'SANW\n'
p1565
F1.08
tp1566
a(S'JOEZ\n'
p1567
F1.08
tp1568
a(S'STND\n'
p1569
F1.08
tp1570
a(S'CASS\n'
p1571
F1.0800000000000054
tp1572
a(S'ZUMZ\n'
p1573
F1.0899999999999999
tp1574
a(S'FXCB\n'
p1575
F1.0899999999999999
tp1576
a(S'MOLXA\n'
p1577
F1.0899999999999999
tp1578
a(S'ACFC\n'
p1579
F1.09
tp1580
a(S'NEXS\n'
p1581
F1.09
tp1582
a(S'VSAT\n'
p1583
F1.0999999999999943
tp1584
a(S'CMSB\n'
p1585
F1.0999999999999996
tp1586
a(S'PEOP\n'
p1587
F1.1099999999999994
tp1588
a(S'III\n'
p1589
F1.11
tp1590
a(S'WRLS\n'
p1591
F1.1100000000000003
tp1592
a(S'IRWD\n'
p1593
F1.1100000000000012
tp1594
a(S'KIRK\n'
p1595
F1.1199999999999992
tp1596
a(S'FCVA\n'
p1597
F1.1199999999999997
tp1598
a(S'WIN\n'
p1599
F1.120000000000001
tp1600
a(S'TFM\n'
p1601
F1.1299999999999955
tp1602
a(S'MBFI\n'
p1603
F1.129999999999999
tp1604
a(S'GOODO\n'
p1605
F1.129999999999999
tp1606
a(S'NBIX\n'
p1607
F1.13
tp1608
a(S'UBNK\n'
p1609
F1.1300000000000008
tp1610
a(S'JCOM\n'
p1611
F1.1300000000000026
tp1612
a(S'PCBK\n'
p1613
F1.1399999999999988
tp1614
a(S'SQI\n'
p1615
F1.1399999999999988
tp1616
a(S'CITZ\n'
p1617
F1.1399999999999997
tp1618
a(S'TROV\n'
p1619
F1.1399999999999997
tp1620
a(S'LSBI\n'
p1621
F1.1400000000000006
tp1622
a(S'TTWO\n'
p1623
F1.1400000000000006
tp1624
a(S'CHEV\n'
p1625
F1.1400000000000006
tp1626
a(S'EPAY\n'
p1627
F1.1400000000000006
tp1628
a(S'SUSQ\n'
p1629
F1.1499999999999986
tp1630
a(S'WPCS\n'
p1631
F1.1500000000000001
tp1632
a(S'LNDC\n'
p1633
F1.1500000000000004
tp1634
a(S'RTEC\n'
p1635
F1.1500000000000004
tp1636
a(S'GLPW\n'
p1637
F1.1500000000000021
tp1638
a(S'LRAD\n'
p1639
F1.16
tp1640
a(S'FFIC\n'
p1641
F1.1600000000000001
tp1642
a(S'PERF\n'
p1643
F1.1600000000000001
tp1644
a(S'LMLP\n'
p1645
F1.1600000000000001
tp1646
a(S'IMMR\n'
p1647
F1.1600000000000001
tp1648
a(S'PNQI\n'
p1649
F1.1600000000000037
tp1650
a(S'CNSL\n'
p1651
F1.1699999999999982
tp1652
a(S'WBSN\n'
p1653
F1.1699999999999982
tp1654
a(S'LPSN\n'
p1655
F1.17
tp1656
a(S'STLY\n'
p1657
F1.17
tp1658
a(S'LMAT\n'
p1659
F1.17
tp1660
a(S'CYTK\n'
p1661
F1.17
tp1662
a(S'CSCD\n'
p1663
F1.17
tp1664
a(S'ADUS\n'
p1665
F1.1700000000000004
tp1666
a(S'RNST\n'
p1667
F1.1700000000000017
tp1668
a(S'BOKF\n'
p1669
F1.1700000000000017
tp1670
a(S'CMLS\n'
p1671
F1.1799999999999997
tp1672
a(S'SGEN\n'
p1673
F1.1799999999999997
tp1674
a(S'VIAS\n'
p1675
F1.1799999999999997
tp1676
a(S'IDTI\n'
p1677
F1.1799999999999997
tp1678
a(S'MDRX\n'
p1679
F1.1899999999999977
tp1680
a(S'AIRT\n'
p1681
F1.1899999999999995
tp1682
a(S'CAMT\n'
p1683
F1.19
tp1684
a(S'HLYS\n'
p1685
F1.19
tp1686
a(S'ATLO\n'
p1687
F1.1900000000000013
tp1688
a(S'SILC\n'
p1689
F1.1999999999999993
tp1690
a(S'PNNT\n'
p1691
F1.1999999999999993
tp1692
a(S'NWFL\n'
p1693
F1.1999999999999993
tp1694
a(S'AVGO\n'
p1695
F1.1999999999999993
tp1696
a(S'ESEA\n'
p1697
F1.1999999999999997
tp1698
a(S'VRNM\n'
p1699
F1.1999999999999997
tp1700
a(S'COBR\n'
p1701
F1.1999999999999997
tp1702
a(S'EDUC\n'
p1703
F1.2000000000000002
tp1704
a(S'FSC\n'
p1705
F1.200000000000001
tp1706
a(S'CSBK\n'
p1707
F1.200000000000001
tp1708
a(S'EBTC\n'
p1709
F1.209999999999999
tp1710
a(S'SAAS\n'
p1711
F1.2099999999999995
tp1712
a(S'SPAR\n'
p1713
F1.21
tp1714
a(S'CSFL\n'
p1715
F1.21
tp1716
a(S'SWSH\n'
p1717
F1.21
tp1718
a(S'CMRG\n'
p1719
F1.21
tp1720
a(S'SCMFO\n'
p1721
F1.21
tp1722
a(S'TICC\n'
p1723
F1.21
tp1724
a(S'CY\n'
p1725
F1.2100000000000009
tp1726
a(S'BVSN\n'
p1727
F1.2100000000000009
tp1728
a(S'JOUT\n'
p1729
F1.2199999999999989
tp1730
a(S'FCEL\n'
p1731
F1.2199999999999998
tp1732
a(S'RBNF\n'
p1733
F1.2200000000000002
tp1734
a(S'VSCP\n'
p1735
F1.2200000000000002
tp1736
a(S'CALD\n'
p1737
F1.2299999999999995
tp1738
a(S'OMPI\n'
p1739
F1.2300000000000004
tp1740
a(S'CBSH\n'
p1741
F1.230000000000004
tp1742
a(S'GKSR\n'
p1743
F1.2399999999999984
tp1744
a(S'EMKR\n'
p1745
F1.2399999999999998
tp1746
a(S'IMOS\n'
p1747
F1.2400000000000002
tp1748
a(S'SIFI\n'
p1749
F1.2400000000000002
tp1750
a(S'MDSO\n'
p1751
F1.25
tp1752
a(S'SUTR\n'
p1753
F1.25
tp1754
a(S'UBSH\n'
p1755
F1.2599999999999998
tp1756
a(S'MITK\n'
p1757
F1.2599999999999998
tp1758
a(S'ZAGG\n'
p1759
F1.2599999999999998
tp1760
a(S'WRES\n'
p1761
F1.2599999999999998
tp1762
a(S'TITN\n'
p1763
F1.2600000000000016
tp1764
a(S'GOODP\n'
p1765
F1.2600000000000016
tp1766
a(S'WIRE\n'
p1767
F1.2699999999999996
tp1768
a(S'MEAS\n'
p1769
F1.2799999999999976
tp1770
a(S'WERN\n'
p1771
F1.2800000000000011
tp1772
a(S'MSFT\n'
p1773
F1.2899999999999991
tp1774
a(S'AEPI\n'
p1775
F1.2899999999999991
tp1776
a(S'IIIN\n'
p1777
F1.2899999999999991
tp1778
a(S'ACAS\n'
p1779
F1.2899999999999991
tp1780
a(S'OFLX\n'
p1781
F1.2899999999999991
tp1782
a(S'CASM\n'
p1783
F1.29
tp1784
a(S'WSBF\n'
p1785
F1.2900000000000003
tp1786
a(S'ANGO\n'
p1787
F1.290000000000001
tp1788
a(S'ATNI\n'
p1789
F1.2999999999999972
tp1790
a(S'CBNK\n'
p1791
F1.299999999999999
tp1792
a(S'ABTL\n'
p1793
F1.2999999999999998
tp1794
a(S'APFC\n'
p1795
F1.2999999999999998
tp1796
a(S'CUTR\n'
p1797
F1.2999999999999998
tp1798
a(S'IFON\n'
p1799
F1.2999999999999998
tp1800
a(S'ABAX\n'
p1801
F1.3000000000000007
tp1802
a(S'MOLX\n'
p1803
F1.3000000000000007
tp1804
a(S'VIFL\n'
p1805
F1.31
tp1806
a(S'SOCB\n'
p1807
F1.31
tp1808
a(S'QADA\n'
p1809
F1.3100000000000005
tp1810
a(S'EPIQ\n'
p1811
F1.3100000000000005
tp1812
a(S'HIMX\n'
p1813
F1.3199999999999998
tp1814
a(S'NVAX\n'
p1815
F1.32
tp1816
a(S'SRCL\n'
p1817
F1.3299999999999983
tp1818
a(S'HDNG\n'
p1819
F1.33
tp1820
a(S'TCBK\n'
p1821
F1.33
tp1822
a(S'BERK\n'
p1823
F1.3399999999999999
tp1824
a(S'LABC\n'
p1825
F1.3399999999999999
tp1826
a(S'QLTY\n'
p1827
F1.3499999999999996
tp1828
a(S'SBBX\n'
p1829
F1.3499999999999996
tp1830
a(S'CRUS\n'
p1831
F1.3499999999999996
tp1832
a(S'GPRE\n'
p1833
F1.3499999999999996
tp1834
a(S'VPFG\n'
p1835
F1.3499999999999996
tp1836
a(S'CAMP\n'
p1837
F1.35
tp1838
a(S'DOVR\n'
p1839
F1.35
tp1840
a(S'DEPO\n'
p1841
F1.3500000000000005
tp1842
a(S'KFFG\n'
p1843
F1.3599999999999994
tp1844
a(S'DTV\n'
p1845
F1.3599999999999994
tp1846
a(S'TWTC\n'
p1847
F1.3599999999999994
tp1848
a(S'INCY\n'
p1849
F1.3600000000000012
tp1850
a(S'SYNA\n'
p1851
F1.360000000000003
tp1852
a(S'ATRM\n'
p1853
F1.37
tp1854
a(S'AEZS\n'
p1855
F1.379999999999999
tp1856
a(S'DVOX\n'
p1857
F1.3799999999999994
tp1858
a(S'TATT\n'
p1859
F1.3800000000000003
tp1860
a(S'CMCSA\n'
p1861
F1.3800000000000026
tp1862
a(S'CRDS\n'
p1863
F1.3899999999999997
tp1864
a(S'KONA\n'
p1865
F1.3899999999999997
tp1866
a(S'DLHC\n'
p1867
F1.39
tp1868
a(S'ENDP\n'
p1869
F1.3900000000000006
tp1870
a(S'NBTB\n'
p1871
F1.3999999999999986
tp1872
a(S'USATP\n'
p1873
F1.3999999999999986
tp1874
a(S'ICCC\n'
p1875
F1.4000000000000004
tp1876
a(S'HBMD\n'
p1877
F1.4000000000000004
tp1878
a(S'FBMI\n'
p1879
F1.4000000000000004
tp1880
a(S'NGPC\n'
p1881
F1.4099999999999993
tp1882
a(S'LIOX\n'
p1883
F1.4100000000000001
tp1884
a(S'WSTG\n'
p1885
F1.4100000000000001
tp1886
a(S'WBCO\n'
p1887
F1.4100000000000001
tp1888
a(S'FLIC\n'
p1889
F1.4100000000000001
tp1890
a(S'VTUS\n'
p1891
F1.4100000000000001
tp1892
a(S'UTMD\n'
p1893
F1.4100000000000001
tp1894
a(S'BWINB\n'
p1895
F1.4200000000000017
tp1896
a(S'EXFO\n'
p1897
F1.4299999999999997
tp1898
a(S'OPOF\n'
p1899
F1.4299999999999997
tp1900
a(S'GIGA\n'
p1901
F1.4300000000000002
tp1902
a(S'ERII\n'
p1903
F1.4399999999999995
tp1904
a(S'MRGE\n'
p1905
F1.4399999999999995
tp1906
a(S'UBFO\n'
p1907
F1.44
tp1908
a(S'FSIN\n'
p1909
F1.4400000000000013
tp1910
a(S'ALTR\n'
p1911
F1.4400000000000048
tp1912
a(S'FBSS\n'
p1913
F1.4499999999999993
tp1914
a(S'HIHO\n'
p1915
F1.4500000000000002
tp1916
a(S'ENTG\n'
p1917
F1.4500000000000002
tp1918
a(S'PSTR\n'
p1919
F1.4500000000000002
tp1920
a(S'WETF\n'
p1921
F1.4500000000000002
tp1922
a(S'LCUT\n'
p1923
F1.450000000000001
tp1924
a(S'MSBF\n'
p1925
F1.46
tp1926
a(S'PPHM\n'
p1927
F1.4600000000000002
tp1928
a(S'CTBI\n'
p1929
F1.4699999999999989
tp1930
a(S'OPXA\n'
p1931
F1.4699999999999998
tp1932
a(S'BTFG\n'
p1933
F1.47
tp1934
a(S'NYNY\n'
p1935
F1.4700000000000002
tp1936
a(S'APOG\n'
p1937
F1.4700000000000006
tp1938
a(S'IDSY\n'
p1939
F1.4700000000000006
tp1940
a(S'ESIO\n'
p1941
F1.4799999999999986
tp1942
a(S'SOMH\n'
p1943
F1.4799999999999995
tp1944
a(S'SMMF\n'
p1945
F1.48
tp1946
a(S'ZIXI\n'
p1947
F1.48
tp1948
a(S'MYRG\n'
p1949
F1.4800000000000004
tp1950
a(S'BREW\n'
p1951
F1.4800000000000004
tp1952
a(S'ADRU\n'
p1953
F1.4800000000000004
tp1954
a(S'CHRM\n'
p1955
F1.4899999999999984
tp1956
a(S'CCNE\n'
p1957
F1.4899999999999984
tp1958
a(S'BNCN\n'
p1959
F1.4899999999999993
tp1960
a(S'WSTL\n'
p1961
F1.4899999999999998
tp1962
a(S'YORW\n'
p1963
F1.4900000000000002
tp1964
a(S'KNDI\n'
p1965
F1.4900000000000002
tp1966
a(S'UCBA\n'
p1967
F1.4900000000000002
tp1968
a(S'PLPC\n'
p1969
F1.490000000000002
tp1970
a(S'FUBC\n'
p1971
F1.5
tp1972
a(S'OCZ\n'
p1973
F1.5
tp1974
a(S'GTWN\n'
p1975
F1.5
tp1976
a(S'CRWN\n'
p1977
F1.5
tp1978
a(S'CRWS\n'
p1979
F1.5
tp1980
a(S'WLFC\n'
p1981
F1.5
tp1982
a(S'YTEC\n'
p1983
F1.5
tp1984
a(S'IDCC\n'
p1985
F1.509999999999998
tp1986
a(S'FMNB\n'
p1987
F1.5099999999999998
tp1988
a(S'INTX\n'
p1989
F1.5099999999999998
tp1990
a(S'REXX\n'
p1991
F1.5099999999999998
tp1992
a(S'BRKS\n'
p1993
F1.5199999999999996
tp1994
a(S'HBAN\n'
p1995
F1.5200000000000005
tp1996
a(S'HOLX\n'
p1997
F1.5299999999999976
tp1998
a(S'ONVI\n'
p1999
F1.5299999999999998
tp2000
a(S'TTGT\n'
p2001
F1.5300000000000002
tp2002
a(S'NRIM\n'
p2003
F1.5399999999999991
tp2004
a(S'CTIB\n'
p2005
F1.54
tp2006
a(S'SONA\n'
p2007
F1.54
tp2008
a(S'STRS\n'
p2009
F1.54
tp2010
a(S'GCBC\n'
p2011
F1.5499999999999972
tp2012
a(S'CNBC\n'
p2013
F1.549999999999999
tp2014
a(S'GILT\n'
p2015
F1.5499999999999998
tp2016
a(S'PGTI\n'
p2017
F1.55
tp2018
a(S'ONFC\n'
p2019
F1.5500000000000007
tp2020
a(S'LCNB\n'
p2021
F1.5500000000000007
tp2022
a(S'AUXL\n'
p2023
F1.5500000000000007
tp2024
a(S'CLMS\n'
p2025
F1.5500000000000007
tp2026
a(S'THRD\n'
p2027
F1.5500000000000007
tp2028
a(S'MGYR\n'
p2029
F1.5599999999999996
tp2030
a(S'HALO\n'
p2031
F1.5599999999999996
tp2032
a(S'MYRX\n'
p2033
F1.56
tp2034
a(S'RMTR\n'
p2035
F1.57
tp2036
a(S'DCOM\n'
p2037
F1.5700000000000003
tp2038
a(S'ENG\n'
p2039
F1.5700000000000003
tp2040
a(S'CLDX\n'
p2041
F1.5799999999999996
tp2042
a(S'MENT\n'
p2043
F1.58
tp2044
a(S'MOSY\n'
p2045
F1.58
tp2046
a(S'MERC\n'
p2047
F1.58
tp2048
a(S'ZIPR\n'
p2049
F1.58
tp2050
a(S'AMOT\n'
p2051
F1.58
tp2052
a(S'EZPW\n'
p2053
F1.5899999999999999
tp2054
a(S'NSIT\n'
p2055
F1.5899999999999999
tp2056
a(S'NKSH\n'
p2057
F1.5899999999999999
tp2058
a(S'CPSL\n'
p2059
F1.5899999999999999
tp2060
a(S'VYFC\n'
p2061
F1.5899999999999999
tp2062
a(S'ALGT\n'
p2063
F1.5900000000000034
tp2064
a(S'EBAY\n'
p2065
F1.5999999999999979
tp2066
a(S'BBNK\n'
p2067
F1.5999999999999996
tp2068
a(S'ETRM\n'
p2069
F1.5999999999999999
tp2070
a(S'ECOL\n'
p2071
F1.6000000000000014
tp2072
a(S'SBSI\n'
p2073
F1.6099999999999994
tp2074
a(S'AMRB\n'
p2075
F1.6100000000000003
tp2076
a(S'CLCT\n'
p2077
F1.6199999999999992
tp2078
a(S'APRI\n'
p2079
F1.62
tp2080
a(S'FLML\n'
p2081
F1.62
tp2082
a(S'CXPO\n'
p2083
F1.6200000000000006
tp2084
a(S'BBRG\n'
p2085
F1.620000000000001
tp2086
a(S'ESBK\n'
p2087
F1.620000000000001
tp2088
a(S'ELRC\n'
p2089
F1.620000000000001
tp2090
a(S'APSA\n'
p2091
F1.620000000000001
tp2092
a(S'CLNE\n'
p2093
F1.629999999999999
tp2094
a(S'COOL\n'
p2095
F1.63
tp2096
a(S'PAMT\n'
p2097
F1.63
tp2098
a(S'RCKY\n'
p2099
F1.6300000000000008
tp2100
a(S'ALVR\n'
p2101
F1.6399999999999997
tp2102
a(S'BLKB\n'
p2103
F1.6400000000000006
tp2104
a(S'ALLB\n'
p2105
F1.6400000000000006
tp2106
a(S'ALNC\n'
p2107
F1.6400000000000006
tp2108
a(S'FORD\n'
p2109
F1.65
tp2110
a(S'LBAI\n'
p2111
F1.6500000000000004
tp2112
a(S'CRRB\n'
p2113
F1.6500000000000004
tp2114
a(S'CVBF\n'
p2115
F1.6500000000000004
tp2116
a(S'ESCA\n'
p2117
F1.6500000000000004
tp2118
a(S'COA\n'
p2119
F1.6599999999999997
tp2120
a(S'SPCHB\n'
p2121
F1.6599999999999997
tp2122
a(S'BKMU\n'
p2123
F1.6600000000000001
tp2124
a(S'UFCS\n'
p2125
F1.6600000000000001
tp2126
a(S'HRZN\n'
p2127
F1.67
tp2128
a(S'SNTA\n'
p2129
F1.67
tp2130
a(S'PCYO\n'
p2131
F1.67
tp2132
a(S'CPHC\n'
p2133
F1.6799999999999997
tp2134
a(S'GULF\n'
p2135
F1.6799999999999997
tp2136
a(S'PSCT\n'
p2137
F1.6799999999999997
tp2138
a(S'CNBKA\n'
p2139
F1.6799999999999997
tp2140
a(S'MPET\n'
p2141
F1.68
tp2142
a(S'QCRH\n'
p2143
F1.6800000000000006
tp2144
a(S'RTIX\n'
p2145
F1.6800000000000006
tp2146
a(S'SHOR\n'
p2147
F1.6800000000000006
tp2148
a(S'HBHC\n'
p2149
F1.6800000000000033
tp2150
a(S'PSSI\n'
p2151
F1.6900000000000013
tp2152
a(S'ASNA\n'
p2153
F1.6999999999999993
tp2154
a(S'SCOR\n'
p2155
F1.6999999999999993
tp2156
a(S'BKOR\n'
p2157
F1.6999999999999997
tp2158
a(S'SSNC\n'
p2159
F1.7000000000000028
tp2160
a(S'ESBF\n'
p2161
F1.709999999999999
tp2162
a(S'OPAY\n'
p2163
F1.71
tp2164
a(S'VTSS\n'
p2165
F1.71
tp2166
a(S'MSFG\n'
p2167
F1.7100000000000009
tp2168
a(S'OMCL\n'
p2169
F1.7199999999999989
tp2170
a(S'CKSW\n'
p2171
F1.7199999999999998
tp2172
a(S'DBLE\n'
p2173
F1.7199999999999998
tp2174
a(S'DHFT\n'
p2175
F1.7200000000000006
tp2176
a(S'VCBI\n'
p2177
F1.7200000000000006
tp2178
a(S'VRTU\n'
p2179
F1.7300000000000004
tp2180
a(S'TSLA\n'
p2181
F1.7300000000000004
tp2182
a(S'SFNC\n'
p2183
F1.7300000000000004
tp2184
a(S'FFNW\n'
p2185
F1.7300000000000004
tp2186
a(S'RLOG\n'
p2187
F1.7400000000000002
tp2188
a(S'WTBA\n'
p2189
F1.7400000000000002
tp2190
a(S'BSRR\n'
p2191
F1.7400000000000002
tp2192
a(S'BGCP\n'
p2193
F1.7400000000000002
tp2194
a(S'ACCL\n'
p2195
F1.740000000000001
tp2196
a(S'SPPRP\n'
p2197
F1.7499999999999991
tp2198
a(S'PVTBP\n'
p2199
F1.75
tp2200
a(S'PACR\n'
p2201
F1.75
tp2202
a(S'STRN\n'
p2203
F1.75
tp2204
a(S'ARCI\n'
p2205
F1.75
tp2206
a(S'CREG\n'
p2207
F1.7500000000000002
tp2208
a(S'BSFT\n'
p2209
F1.759999999999998
tp2210
a(S'SENEA\n'
p2211
F1.759999999999998
tp2212
a(S'GROW\n'
p2213
F1.7599999999999998
tp2214
a(S'FXEN\n'
p2215
F1.7599999999999998
tp2216
a(S'SNHY\n'
p2217
F1.7600000000000016
tp2218
a(S'IBOC\n'
p2219
F1.7699999999999996
tp2220
a(S'KBALB\n'
p2221
F1.7699999999999996
tp2222
a(S'ARTC\n'
p2223
F1.7699999999999996
tp2224
a(S'HAUP\n'
p2225
F1.77
tp2226
a(S'IVAN\n'
p2227
F1.77
tp2228
a(S'FCCY\n'
p2229
F1.7799999999999994
tp2230
a(S'BPOPM\n'
p2231
F1.7799999999999994
tp2232
a(S'SABA\n'
p2233
F1.7799999999999994
tp2234
a(S'NSYS\n'
p2235
F1.7799999999999998
tp2236
a(S'MPAC\n'
p2237
F1.7800000000000002
tp2238
a(S'CAKE\n'
p2239
F1.7800000000000011
tp2240
a(S'IRETP\n'
p2241
F1.7800000000000011
tp2242
a(S'ACIW\n'
p2243
F1.7899999999999991
tp2244
a(S'MFI\n'
p2245
F1.7899999999999996
tp2246
a(S'GAME\n'
p2247
F1.7900000000000005
tp2248
a(S'CSII\n'
p2249
F1.790000000000001
tp2250
a(S'MEDW\n'
p2251
F1.790000000000001
tp2252
a(S'MASC\n'
p2253
F1.790000000000001
tp2254
a(S'PANL\n'
p2255
F1.7999999999999972
tp2256
a(S'HOME\n'
p2257
F1.799999999999999
tp2258
a(S'IDRA\n'
p2259
F1.8
tp2260
a(S'RPRX\n'
p2261
F1.8000000000000003
tp2262
a(S'HBCP\n'
p2263
F1.8000000000000007
tp2264
a(S'SYMM\n'
p2265
F1.8000000000000007
tp2266
a(S'OTIV\n'
p2267
F1.81
tp2268
a(S'WAVX\n'
p2269
F1.81
tp2270
a(S'UG\n'
p2271
F1.8100000000000005
tp2272
a(S'WDC\n'
p2273
F1.8299999999999983
tp2274
a(S'EHTH\n'
p2275
F1.83
tp2276
a(S'DAIO\n'
p2277
F1.83
tp2278
a(S'ASCA\n'
p2279
F1.8300000000000018
tp2280
a(S'ASTE\n'
p2281
F1.8399999999999963
tp2282
a(S'SIFY\n'
p2283
F1.8399999999999994
tp2284
a(S'LGCY\n'
p2285
F1.8399999999999999
tp2286
a(S'BPOPN\n'
p2287
F1.8399999999999999
tp2288
a(S'VDSI\n'
p2289
F1.8399999999999999
tp2290
a(S'CACH\n'
p2291
F1.8400000000000007
tp2292
a(S'MNTA\n'
p2293
F1.8500000000000014
tp2294
a(S'AAON\n'
p2295
F1.8599999999999994
tp2296
a(S'PSCI\n'
p2297
F1.8599999999999994
tp2298
a(S'AMPE\n'
p2299
F1.8599999999999994
tp2300
a(S'FITB\n'
p2301
F1.8599999999999994
tp2302
a(S'NXST\n'
p2303
F1.8599999999999994
tp2304
a(S'XBKS\n'
p2305
F1.8599999999999999
tp2306
a(S'BKCC\n'
p2307
F1.8600000000000003
tp2308
a(S'WWWW\n'
p2309
F1.8699999999999992
tp2310
a(S'IIJI\n'
p2311
F1.8699999999999992
tp2312
a(S'SEAC\n'
p2313
F1.87
tp2314
a(S'TBAC\n'
p2315
F1.87
tp2316
a(S'MCBC\n'
p2317
F1.8700000000000006
tp2318
a(S'TUES\n'
p2319
F1.88
tp2320
a(S'SNSS\n'
p2321
F1.8900000000000001
tp2322
a(S'BAGL\n'
p2323
F1.8900000000000006
tp2324
a(S'TESS\n'
p2325
F1.8900000000000006
tp2326
a(S'NWS\n'
p2327
F1.8900000000000006
tp2328
a(S'BANFP\n'
p2329
F1.8999999999999986
tp2330
a(S'UNB\n'
p2331
F1.8999999999999986
tp2332
a(S'SGC\n'
p2333
F1.8999999999999986
tp2334
a(S'FIBK\n'
p2335
F1.8999999999999986
tp2336
a(S'SPNC\n'
p2337
F1.8999999999999995
tp2338
a(S'ACFN\n'
p2339
F1.8999999999999995
tp2340
a(S'WWAY\n'
p2341
F1.8999999999999995
tp2342
a(S'JBLU\n'
p2343
F1.8999999999999995
tp2344
a(S'BANR\n'
p2345
F1.9000000000000004
tp2346
a(S'ACPW\n'
p2347
F1.9099999999999997
tp2348
a(S'MLVF\n'
p2349
F1.9100000000000001
tp2350
a(S'PTSI\n'
p2351
F1.9100000000000001
tp2352
a(S'HTLD\n'
p2353
F1.9199999999999982
tp2354
a(S'MSPD\n'
p2355
F1.92
tp2356
a(S'FSFG\n'
p2357
F1.9200000000000017
tp2358
a(S'CALL\n'
p2359
F1.9299999999999997
tp2360
a(S'UNXL\n'
p2361
F1.9300000000000006
tp2362
a(S'OSM\n'
p2363
F1.9399999999999977
tp2364
a(S'DUSA\n'
p2365
F1.94
tp2366
a(S'RRD\n'
p2367
F1.9400000000000013
tp2368
a(S'TECH\n'
p2369
F1.9499999999999886
tp2370
a(S'IMGN\n'
p2371
F1.9499999999999993
tp2372
a(S'FBMS\n'
p2373
F1.9499999999999993
tp2374
a(S'NEBS\n'
p2375
F1.9499999999999993
tp2376
a(S'ZHNE\n'
p2377
F1.9499999999999997
tp2378
a(S'PFBI\n'
p2379
F1.9500000000000002
tp2380
a(S'CENTA\n'
p2381
F1.959999999999999
tp2382
a(S'MFSF\n'
p2383
F1.96
tp2384
a(S'JADE\n'
p2385
F1.96
tp2386
a(S'FCBC\n'
p2387
F1.9600000000000009
tp2388
a(S'ISM\n'
p2389
F1.9600000000000009
tp2390
a(S'BOBE\n'
p2391
F1.9600000000000009
tp2392
a(S'HPCCP\n'
p2393
F1.9699999999999989
tp2394
a(S'KLIC\n'
p2395
F1.9699999999999998
tp2396
a(S'KERX\n'
p2397
F1.9700000000000002
tp2398
a(S'SYMC\n'
p2399
F1.9700000000000006
tp2400
a(S'EXAS\n'
p2401
F1.9799999999999995
tp2402
a(S'COLB\n'
p2403
F1.9800000000000004
tp2404
a(S'ADRD\n'
p2405
F1.9800000000000004
tp2406
a(S'HCSG\n'
p2407
F1.9800000000000022
tp2408
a(S'MCGC\n'
p2409
F1.9899999999999998
tp2410
a(S'ACLS\n'
p2411
F1.9899999999999998
tp2412
a(S'TWER\n'
p2413
F1.9900000000000002
tp2414
a(S'EVBS\n'
p2415
F1.9900000000000002
tp2416
a(S'NURO\n'
p2417
F1.9900000000000002
tp2418
a(S'STNR\n'
p2419
F1.990000000000002
tp2420
a(S'VIDE\n'
p2421
F2.0
tp2422
a(S'GALE\n'
p2423
F2.0
tp2424
a(S'HTCO\n'
p2425
F2.0
tp2426
a(S'TXRH\n'
p2427
F2.0000000000000018
tp2428
a(S'CIZN\n'
p2429
F2.009999999999998
tp2430
a(S'SLTC\n'
p2431
F2.0100000000000002
tp2432
a(S'LTXC\n'
p2433
F2.0100000000000007
tp2434
a(S'AIMC\n'
p2435
F2.0100000000000016
tp2436
a(S'ZBRA\n'
p2437
F2.019999999999996
tp2438
a(S'QABA\n'
p2439
F2.0199999999999996
tp2440
a(S'NTSC\n'
p2441
F2.0199999999999996
tp2442
a(S'GENE\n'
p2443
F2.0199999999999996
tp2444
a(S'CEDU\n'
p2445
F2.0199999999999996
tp2446
a(S'CHLN\n'
p2447
F2.03
tp2448
a(S'ALTI\n'
p2449
F2.03
tp2450
a(S'HAFC\n'
p2451
F2.039999999999999
tp2452
a(S'TRIB\n'
p2453
F2.039999999999999
tp2454
a(S'AVAV\n'
p2455
F2.039999999999999
tp2456
a(S'MGAM\n'
p2457
F2.04
tp2458
a(S'RTLX\n'
p2459
F2.040000000000001
tp2460
a(S'DRCO\n'
p2461
F2.040000000000001
tp2462
a(S'CBAN\n'
p2463
F2.05
tp2464
a(S'ACET\n'
p2465
F2.05
tp2466
a(S'ELNK\n'
p2467
F2.05
tp2468
a(S'VLTR\n'
p2469
F2.0500000000000007
tp2470
a(S'SIVBO\n'
p2471
F2.0599999999999987
tp2472
a(S'LYTS\n'
p2473
F2.0599999999999996
tp2474
a(S'MGIC\n'
p2475
F2.0600000000000005
tp2476
a(S'AROW\n'
p2477
F2.0600000000000023
tp2478
a(S'PDFS\n'
p2479
F2.0699999999999994
tp2480
a(S'QTEC\n'
p2481
F2.0700000000000003
tp2482
a(S'ISHG\n'
p2483
F2.0700000000000074
tp2484
a(S'QLGC\n'
p2485
F2.0799999999999983
tp2486
a(S'ATX\n'
p2487
F2.08
tp2488
a(S'FBRC\n'
p2489
F2.08
tp2490
a(S'CDNS\n'
p2491
F2.08
tp2492
a(S'UNIS\n'
p2493
F2.08
tp2494
a(S'NEWL\n'
p2495
F2.09
tp2496
a(S'CENT\n'
p2497
F2.09
tp2498
a(S'AMCF\n'
p2499
F2.09
tp2500
a(S'EIHI\n'
p2501
F2.0999999999999996
tp2502
a(S'BOTJ\n'
p2503
F2.0999999999999996
tp2504
a(S'PSOF\n'
p2505
F2.1
tp2506
a(S'SVA\n'
p2507
F2.1099999999999994
tp2508
a(S'FMBI\n'
p2509
F2.110000000000001
tp2510
a(S'EEI\n'
p2511
F2.119999999999999
tp2512
a(S'PSTB\n'
p2513
F2.12
tp2514
a(S'AVNR\n'
p2515
F2.12
tp2516
a(S'STRL\n'
p2517
F2.120000000000001
tp2518
a(S'BRKL\n'
p2519
F2.120000000000001
tp2520
a(S'BMTC\n'
p2521
F2.129999999999999
tp2522
a(S'PACW\n'
p2523
F2.129999999999999
tp2524
a(S'CATY\n'
p2525
F2.130000000000001
tp2526
a(S'CAC\n'
p2527
F2.1300000000000026
tp2528
a(S'STX\n'
p2529
F2.139999999999999
tp2530
a(S'ROYL\n'
p2531
F2.14
tp2532
a(S'TACT\n'
p2533
F2.1400000000000006
tp2534
a(S'EBIX\n'
p2535
F2.1499999999999986
tp2536
a(S'SAVB\n'
p2537
F2.1499999999999995
tp2538
a(S'OSIR\n'
p2539
F2.1500000000000004
tp2540
a(S'ROIC\n'
p2541
F2.1500000000000004
tp2542
a(S'MINI\n'
p2543
F2.150000000000002
tp2544
a(S'PATK\n'
p2545
F2.1599999999999997
tp2546
a(S'IIN\n'
p2547
F2.16
tp2548
a(S'NBN\n'
p2549
F2.16
tp2550
a(S'MCRS\n'
p2551
F2.1700000000000017
tp2552
a(S'BECN\n'
p2553
F2.1700000000000017
tp2554
a(S'WILC\n'
p2555
F2.1799999999999997
tp2556
a(S'PCBC\n'
p2557
F2.1800000000000033
tp2558
a(S'COWN\n'
p2559
F2.1900000000000004
tp2560
a(S'DGAS\n'
p2561
F2.1999999999999993
tp2562
a(S'MITL\n'
p2563
F2.1999999999999997
tp2564
a(S'HPJ\n'
p2565
F2.2
tp2566
a(S'GLDD\n'
p2567
F2.2
tp2568
a(S'OABC\n'
p2569
F2.209999999999999
tp2570
a(S'SBAC\n'
p2571
F2.210000000000001
tp2572
a(S'PROV\n'
p2573
F2.210000000000001
tp2574
a(S'FNGN\n'
p2575
F2.219999999999999
tp2576
a(S'FFHL\n'
p2577
F2.22
tp2578
a(S'HALL\n'
p2579
F2.2200000000000006
tp2580
a(S'SIRO\n'
p2581
F2.229999999999997
tp2582
a(S'HA\n'
p2583
F2.2299999999999995
tp2584
a(S'FLEX\n'
p2585
F2.2299999999999995
tp2586
a(S'REXI\n'
p2587
F2.2300000000000004
tp2588
a(S'CHSCP\n'
p2589
F2.2300000000000004
tp2590
a(S'HFBL\n'
p2591
F2.2300000000000004
tp2592
a(S'WYNN\n'
p2593
F2.230000000000004
tp2594
a(S'WASH\n'
p2595
F2.2399999999999984
tp2596
a(S'DWCH\n'
p2597
F2.2399999999999998
tp2598
a(S'DARA\n'
p2599
F2.24
tp2600
a(S'HWBK\n'
p2601
F2.24
tp2602
a(S'AACC\n'
p2603
F2.24
tp2604
a(S'PNFP\n'
p2605
F2.2499999999999982
tp2606
a(S'MU\n'
p2607
F2.249999999999999
tp2608
a(S'PSCC\n'
p2609
F2.259999999999998
tp2610
a(S'ABIO\n'
p2611
F2.26
tp2612
a(S'LNET\n'
p2613
F2.2600000000000002
tp2614
a(S'PMFG\n'
p2615
F2.2600000000000016
tp2616
a(S'QSII\n'
p2617
F2.260000000000005
tp2618
a(S'BDMS\n'
p2619
F2.2699999999999996
tp2620
a(S'CHTP\n'
p2621
F2.2700000000000005
tp2622
a(S'HTCH\n'
p2623
F2.28
tp2624
a(S'HOFT\n'
p2625
F2.280000000000001
tp2626
a(S'LINE\n'
p2627
F2.299999999999997
tp2628
a(S'ALNY\n'
p2629
F2.299999999999999
tp2630
a(S'OIIM\n'
p2631
F2.3
tp2632
a(S'MMLP\n'
p2633
F2.3000000000000043
tp2634
a(S'CWBC\n'
p2635
F2.3099999999999996
tp2636
a(S'ASUR\n'
p2637
F2.31
tp2638
a(S'VICL\n'
p2639
F2.31
tp2640
a(S'TSYS\n'
p2641
F2.31
tp2642
a(S'GIVN\n'
p2643
F2.3100000000000005
tp2644
a(S'FDEF\n'
p2645
F2.3100000000000005
tp2646
a(S'CCOI\n'
p2647
F2.3199999999999985
tp2648
a(S'REIS\n'
p2649
F2.3199999999999994
tp2650
a(S'ECTY\n'
p2651
F2.32
tp2652
a(S'DBLEP\n'
p2653
F2.3200000000000003
tp2654
a(S'HTLF\n'
p2655
F2.3200000000000003
tp2656
a(S'NTGR\n'
p2657
F2.3299999999999983
tp2658
a(S'VCSH\n'
p2659
F2.3299999999999983
tp2660
a(S'IFNA\n'
p2661
F2.3299999999999983
tp2662
a(S'KALU\n'
p2663
F2.3399999999999963
tp2664
a(S'HSKA\n'
p2665
F2.34
tp2666
a(S'MOBI\n'
p2667
F2.34
tp2668
a(S'ANCX\n'
p2669
F2.3499999999999996
tp2670
a(S'MATR\n'
p2671
F2.3499999999999996
tp2672
a(S'PFBC\n'
p2673
F2.3500000000000005
tp2674
a(S'REDF\n'
p2675
F2.3500000000000005
tp2676
a(S'SMTC\n'
p2677
F2.3500000000000014
tp2678
a(S'DEST\n'
p2679
F2.3500000000000014
tp2680
a(S'VSNT\n'
p2681
F2.3599999999999994
tp2682
a(S'MGLN\n'
p2683
F2.3599999999999994
tp2684
a(S'BWOW\n'
p2685
F2.36
tp2686
a(S'SMRT\n'
p2687
F2.37
tp2688
a(S'DISCK\n'
p2689
F2.3700000000000045
tp2690
a(S'OMAB\n'
p2691
F2.379999999999999
tp2692
a(S'LPTN\n'
p2693
F2.38
tp2694
a(S'RFMD\n'
p2695
F2.38
tp2696
a(S'HNH\n'
p2697
F2.389999999999999
tp2698
a(S'AEGR\n'
p2699
F2.389999999999999
tp2700
a(S'PGC\n'
p2701
F2.3900000000000006
tp2702
a(S'AGYS\n'
p2703
F2.3900000000000006
tp2704
a(S'FURX\n'
p2705
F2.3900000000000006
tp2706
a(S'RGCO\n'
p2707
F2.3999999999999986
tp2708
a(S'CPLP\n'
p2709
F2.3999999999999995
tp2710
a(S'ISSC\n'
p2711
F2.4
tp2712
a(S'OBAS\n'
p2713
F2.4000000000000004
tp2714
a(S'CRRC\n'
p2715
F2.4000000000000004
tp2716
a(S'CRDC\n'
p2717
F2.4099999999999997
tp2718
a(S'CSCO\n'
p2719
F2.41
tp2720
a(S'AVEO\n'
p2721
F2.41
tp2722
a(S'DSCO\n'
p2723
F2.42
tp2724
a(S'CROX\n'
p2725
F2.4200000000000017
tp2726
a(S'BSDM\n'
p2727
F2.4299999999999997
tp2728
a(S'CDZI\n'
p2729
F2.4299999999999997
tp2730
a(S'CMCSK\n'
p2731
F2.4299999999999997
tp2732
a(S'IBKR\n'
p2733
F2.4299999999999997
tp2734
a(S'VOD\n'
p2735
F2.4299999999999997
tp2736
a(S'DRRX\n'
p2737
F2.4299999999999997
tp2738
a(S'CNTF\n'
p2739
F2.4300000000000006
tp2740
a(S'HSIC\n'
p2741
F2.430000000000007
tp2742
a(S'MAYS\n'
p2743
F2.4399999999999995
tp2744
a(S'CUNB\n'
p2745
F2.4499999999999993
tp2746
a(S'ESSX\n'
p2747
F2.45
tp2748
a(S'IDIX\n'
p2749
F2.46
tp2750
a(S'ADEP\n'
p2751
F2.4600000000000004
tp2752
a(S'MBVT\n'
p2753
F2.460000000000001
tp2754
a(S'FIZZ\n'
p2755
F2.460000000000001
tp2756
a(S'CBOE\n'
p2757
F2.469999999999999
tp2758
a(S'CFNB\n'
p2759
F2.469999999999999
tp2760
a(S'INWK\n'
p2761
F2.4700000000000006
tp2762
a(S'PCCC\n'
p2763
F2.4700000000000006
tp2764
a(S'BOOM\n'
p2765
F2.4700000000000024
tp2766
a(S'IPGP\n'
p2767
F2.479999999999997
tp2768
a(S'RCKB\n'
p2769
F2.4799999999999986
tp2770
a(S'SPU\n'
p2771
F2.4799999999999995
tp2772
a(S'SURG\n'
p2773
F2.4799999999999995
tp2774
a(S'SGI\n'
p2775
F2.4800000000000004
tp2776
a(S'SPRD\n'
p2777
F2.4800000000000004
tp2778
a(S'BEBE\n'
p2779
F2.4800000000000004
tp2780
a(S'MSW\n'
p2781
F2.490000000000001
tp2782
a(S'LIVE\n'
p2783
F2.5199999999999996
tp2784
a(S'EXAC\n'
p2785
F2.5199999999999996
tp2786
a(S'DMLP\n'
p2787
F2.5199999999999996
tp2788
a(S'FFKY\n'
p2789
F2.5199999999999996
tp2790
a(S'ESSA\n'
p2791
F2.5299999999999994
tp2792
a(S'ONCY\n'
p2793
F2.53
tp2794
a(S'SNBC\n'
p2795
F2.5300000000000002
tp2796
a(S'ORCC\n'
p2797
F2.5300000000000002
tp2798
a(S'SNCR\n'
p2799
F2.530000000000001
tp2800
a(S'IILG\n'
p2801
F2.539999999999999
tp2802
a(S'XTEX\n'
p2803
F2.539999999999999
tp2804
a(S'RNET\n'
p2805
F2.539999999999999
tp2806
a(S'VIMC\n'
p2807
F2.54
tp2808
a(S'MCRI\n'
p2809
F2.540000000000001
tp2810
a(S'FCAP\n'
p2811
F2.549999999999999
tp2812
a(S'UNAM\n'
p2813
F2.5500000000000007
tp2814
a(S'BEAT\n'
p2815
F2.5599999999999996
tp2816
a(S'PLUG\n'
p2817
F2.5599999999999996
tp2818
a(S'STBA\n'
p2819
F2.5699999999999967
tp2820
a(S'ONNN\n'
p2821
F2.5699999999999994
tp2822
a(S'NVEC\n'
p2823
F2.5799999999999983
tp2824
a(S'VTWG\n'
p2825
F2.5799999999999983
tp2826
a(S'HFBC\n'
p2827
F2.58
tp2828
a(S'BONA\n'
p2829
F2.58
tp2830
a(S'URRE\n'
p2831
F2.59
tp2832
a(S'LGND\n'
p2833
F2.59
tp2834
a(S'TAYD\n'
p2835
F2.59
tp2836
a(S'CRIS\n'
p2837
F2.59
tp2838
a(S'TLAB\n'
p2839
F2.6
tp2840
a(S'WAFD\n'
p2841
F2.6000000000000014
tp2842
a(S'GCFB\n'
p2843
F2.6199999999999997
tp2844
a(S'DLLR\n'
p2845
F2.620000000000001
tp2846
a(S'MTRX\n'
p2847
F2.620000000000001
tp2848
a(S'BCOR\n'
p2849
F2.630000000000001
tp2850
a(S'TIGR\n'
p2851
F2.64
tp2852
a(S'MCBI\n'
p2853
F2.6499999999999995
tp2854
a(S'CCIX\n'
p2855
F2.6500000000000004
tp2856
a(S'AMAT\n'
p2857
F2.66
tp2858
a(S'CRVL\n'
p2859
F2.6600000000000037
tp2860
a(S'AMSWA\n'
p2861
F2.67
tp2862
a(S'ARAY\n'
p2863
F2.67
tp2864
a(S'ULBI\n'
p2865
F2.670000000000001
tp2866
a(S'ISIG\n'
p2867
F2.6800000000000006
tp2868
a(S'ONEQ\n'
p2869
F2.680000000000007
tp2870
a(S'INPH\n'
p2871
F2.6899999999999995
tp2872
a(S'GPRC\n'
p2873
F2.69
tp2874
a(S'CPNO\n'
p2875
F2.6900000000000013
tp2876
a(S'AEIS\n'
p2877
F2.6999999999999993
tp2878
a(S'CUI\n'
p2879
F2.7
tp2880
a(S'IGOV\n'
p2881
F2.7099999999999937
tp2882
a(S'ZN\n'
p2883
F2.71
tp2884
a(S'STFC\n'
p2885
F2.710000000000001
tp2886
a(S'MCHP\n'
p2887
F2.719999999999999
tp2888
a(S'JST\n'
p2889
F2.719999999999999
tp2890
a(S'JXSB\n'
p2891
F2.7200000000000006
tp2892
a(S'UACL\n'
p2893
F2.7200000000000006
tp2894
a(S'NPBCO\n'
p2895
F2.7200000000000024
tp2896
a(S'TRS\n'
p2897
F2.7200000000000024
tp2898
a(S'HGSH\n'
p2899
F2.73
tp2900
a(S'CCRN\n'
p2901
F2.7399999999999993
tp2902
a(S'IQNT\n'
p2903
F2.7399999999999993
tp2904
a(S'CADC\n'
p2905
F2.74
tp2906
a(S'COKE\n'
p2907
F2.740000000000002
tp2908
a(S'SIAL\n'
p2909
F2.75
tp2910
a(S'FINL\n'
p2911
F2.75
tp2912
a(S'SFBC\n'
p2913
F2.75
tp2914
a(S'WWD\n'
p2915
F2.759999999999998
tp2916
a(S'PODD\n'
p2917
F2.759999999999998
tp2918
a(S'BCRX\n'
p2919
F2.7600000000000002
tp2920
a(S'EZCH\n'
p2921
F2.7600000000000016
tp2922
a(S'GTAT\n'
p2923
F2.7699999999999996
tp2924
a(S'ROCM\n'
p2925
F2.7699999999999996
tp2926
a(S'BBGI\n'
p2927
F2.77
tp2928
a(S'AUDC\n'
p2929
F2.77
tp2930
a(S'PRSC\n'
p2931
F2.7700000000000014
tp2932
a(S'ALTE\n'
p2933
F2.780000000000001
tp2934
a(S'MCRL\n'
p2935
F2.789999999999999
tp2936
a(S'PGNX\n'
p2937
F2.789999999999999
tp2938
a(S'UBOH\n'
p2939
F2.79
tp2940
a(S'RDA\n'
p2941
F2.790000000000001
tp2942
a(S'BUR\n'
p2943
F2.799999999999999
tp2944
a(S'PNTR\n'
p2945
F2.8
tp2946
a(S'THER\n'
p2947
F2.8
tp2948
a(S'PSCM\n'
p2949
F2.8000000000000007
tp2950
a(S'MPEL\n'
p2951
F2.8099999999999996
tp2952
a(S'FFCH\n'
p2953
F2.8100000000000005
tp2954
a(S'PTIE\n'
p2955
F2.8200000000000003
tp2956
a(S'TTEK\n'
p2957
F2.8200000000000003
tp2958
a(S'INFI\n'
p2959
F2.8200000000000003
tp2960
a(S'FSCI\n'
p2961
F2.84
tp2962
a(S'BDSI\n'
p2963
F2.84
tp2964
a(S'CPGI\n'
p2965
F2.8400000000000003
tp2966
a(S'OSUR\n'
p2967
F2.8499999999999996
tp2968
a(S'NICK\n'
p2969
F2.8499999999999996
tp2970
a(S'EML\n'
p2971
F2.8500000000000014
tp2972
a(S'GBCI\n'
p2973
F2.8500000000000014
tp2974
a(S'CTGX\n'
p2975
F2.8599999999999994
tp2976
a(S'METR\n'
p2977
F2.8599999999999994
tp2978
a(S'KONG\n'
p2979
F2.8600000000000003
tp2980
a(S'OKSBP\n'
p2981
F2.8699999999999974
tp2982
a(S'RPTP\n'
p2983
F2.8699999999999997
tp2984
a(S'SCBT\n'
p2985
F2.870000000000001
tp2986
a(S'CEBK\n'
p2987
F2.870000000000001
tp2988
a(S'UNFI\n'
p2989
F2.8799999999999955
tp2990
a(S'CHOP\n'
p2991
F2.8800000000000003
tp2992
a(S'XRTX\n'
p2993
F2.9000000000000004
tp2994
a(S'CASH\n'
p2995
F2.91
tp2996
a(S'AETI\n'
p2997
F2.92
tp2998
a(S'KGJI\n'
p2999
F2.9300000000000006
tp3000
a(S'TBBK\n'
p3001
F2.9399999999999995
tp3002
a(S'SRDX\n'
p3003
F2.9399999999999995
tp3004
a(S'ANLY\n'
p3005
F2.94
tp3006
a(S'TGE\n'
p3007
F2.94
tp3008
a(S'IMKTA\n'
p3009
F2.9499999999999993
tp3010
a(S'NSPH\n'
p3011
F2.95
tp3012
a(S'CCRT\n'
p3013
F2.95
tp3014
a(S'GLAD\n'
p3015
F2.950000000000001
tp3016
a(S'FCFS\n'
p3017
F2.950000000000003
tp3018
a(S'CBRL\n'
p3019
F2.9599999999999937
tp3020
a(S'LMNX\n'
p3021
F2.960000000000001
tp3022
a(S'FISI\n'
p3023
F2.960000000000001
tp3024
a(S'ACHC\n'
p3025
F2.9700000000000006
tp3026
a(S'LONG\n'
p3027
F2.9700000000000006
tp3028
a(S'WWIN\n'
p3029
F2.9799999999999995
tp3030
a(S'DSCI\n'
p3031
F2.9800000000000004
tp3032
a(S'MXIM\n'
p3033
F2.9800000000000004
tp3034
a(S'EXXI\n'
p3035
F2.9899999999999984
tp3036
a(S'ITRN\n'
p3037
F2.99
tp3038
a(S'ROLL\n'
p3039
F2.990000000000002
tp3040
a(S'BMRC\n'
p3041
F2.990000000000002
tp3042
a(S'XLNX\n'
p3043
F3.0
tp3044
a(S'AMKR\n'
p3045
F3.0
tp3046
a(S'MXWL\n'
p3047
F3.0
tp3048
a(S'NAVG\n'
p3049
F3.0
tp3050
a(S'KOOL\n'
p3051
F3.0
tp3052
a(S'NEON\n'
p3053
F3.0
tp3054
a(S'UHAL\n'
p3055
F3.019999999999996
tp3056
a(S'UCTT\n'
p3057
F3.0200000000000005
tp3058
a(S'BANC\n'
p3059
F3.0200000000000014
tp3060
a(S'ECPG\n'
p3061
F3.0299999999999976
tp3062
a(S'RIMG\n'
p3063
F3.0299999999999994
tp3064
a(S'SNDK\n'
p3065
F3.039999999999999
tp3066
a(S'COCO\n'
p3067
F3.05
tp3068
a(S'EROC\n'
p3069
F3.05
tp3070
a(S'AMRI\n'
p3071
F3.0500000000000003
tp3072
a(S'NSEC\n'
p3073
F3.0599999999999987
tp3074
a(S'MATW\n'
p3075
F3.0599999999999987
tp3076
a(S'IGOI\n'
p3077
F3.06
tp3078
a(S'VMBS\n'
p3079
F3.0700000000000003
tp3080
a(S'AMNB\n'
p3081
F3.0700000000000003
tp3082
a(S'VALU\n'
p3083
F3.0700000000000003
tp3084
a(S'OPTT\n'
p3085
F3.0700000000000003
tp3086
a(S'TXN\n'
p3087
F3.0799999999999983
tp3088
a(S'MDCA\n'
p3089
F3.08
tp3090
a(S'PMCS\n'
p3091
F3.08
tp3092
a(S'MAT\n'
p3093
F3.080000000000002
tp3094
a(S'TESO\n'
p3095
F3.09
tp3096
a(S'MRTN\n'
p3097
F3.09
tp3098
a(S'PNRG\n'
p3099
F3.09
tp3100
a(S'IPAR\n'
p3101
F3.09
tp3102
a(S'PWND\n'
p3103
F3.0900000000000007
tp3104
a(S'PRWT\n'
p3105
F3.0999999999999996
tp3106
a(S'POZN\n'
p3107
F3.0999999999999996
tp3108
a(S'PMNA\n'
p3109
F3.0999999999999996
tp3110
a(S'PRFT\n'
p3111
F3.0999999999999996
tp3112
a(S'GLRE\n'
p3113
F3.1099999999999994
tp3114
a(S'NWSA\n'
p3115
F3.119999999999999
tp3116
a(S'SHLO\n'
p3117
F3.119999999999999
tp3118
a(S'ANCI\n'
p3119
F3.12
tp3120
a(S'SIMG\n'
p3121
F3.12
tp3122
a(S'ANIK\n'
p3123
F3.120000000000001
tp3124
a(S'NVDA\n'
p3125
F3.120000000000001
tp3126
a(S'LTRE\n'
p3127
F3.130000000000001
tp3128
a(S'ISIS\n'
p3129
F3.1399999999999997
tp3130
a(S'TRMB\n'
p3131
F3.1400000000000006
tp3132
a(S'NAII\n'
p3133
F3.1499999999999995
tp3134
a(S'BSET\n'
p3135
F3.15
tp3136
a(S'TKMR\n'
p3137
F3.1500000000000004
tp3138
a(S'MCHX\n'
p3139
F3.1500000000000004
tp3140
a(S'HOTR\n'
p3141
F3.1500000000000004
tp3142
a(S'STKL\n'
p3143
F3.16
tp3144
a(S'CZNC\n'
p3145
F3.160000000000002
tp3146
a(S'CNQR\n'
p3147
F3.1700000000000017
tp3148
a(S'DYSL\n'
p3149
F3.1799999999999997
tp3150
a(S'SGMA\n'
p3151
F3.1900000000000004
tp3152
a(S'FELE\n'
p3153
F3.190000000000005
tp3154
a(S'PSCU\n'
p3155
F3.1999999999999993
tp3156
a(S'OTT\n'
p3157
F3.1999999999999993
tp3158
a(S'QLIK\n'
p3159
F3.1999999999999993
tp3160
a(S'ANTP\n'
p3161
F3.2
tp3162
a(S'SEV\n'
p3163
F3.21
tp3164
a(S'CJJD\n'
p3165
F3.21
tp3166
a(S'PERI\n'
p3167
F3.21
tp3168
a(S'TRNS\n'
p3169
F3.210000000000001
tp3170
a(S'NATL\n'
p3171
F3.219999999999999
tp3172
a(S'EXEL\n'
p3173
F3.2199999999999998
tp3174
a(S'TREE\n'
p3175
F3.2200000000000006
tp3176
a(S'LTBR\n'
p3177
F3.2299999999999995
tp3178
a(S'USMO\n'
p3179
F3.2300000000000004
tp3180
a(S'PLCM\n'
p3181
F3.2300000000000004
tp3182
a(S'FBIZ\n'
p3183
F3.2300000000000004
tp3184
a(S'LARK\n'
p3185
F3.2300000000000004
tp3186
a(S'THRX\n'
p3187
F3.2399999999999984
tp3188
a(S'POWR\n'
p3189
F3.2399999999999993
tp3190
a(S'ZINC\n'
p3191
F3.24
tp3192
a(S'CYTX\n'
p3193
F3.25
tp3194
a(S'PHII\n'
p3195
F3.25
tp3196
a(S'TSRX\n'
p3197
F3.2600000000000002
tp3198
a(S'ATSG\n'
p3199
F3.2700000000000005
tp3200
a(S'MAPP\n'
p3201
F3.2700000000000014
tp3202
a(S'SANM\n'
p3203
F3.2799999999999994
tp3204
a(S'THTI\n'
p3205
F3.29
tp3206
a(S'DSPG\n'
p3207
F3.29
tp3208
a(S'USEG\n'
p3209
F3.29
tp3210
a(S'SQNM\n'
p3211
F3.3
tp3212
a(S'ASTI\n'
p3213
F3.3
tp3214
a(S'EDAP\n'
p3215
F3.31
tp3216
a(S'SYNT\n'
p3217
F3.3200000000000003
tp3218
a(S'EDS\n'
p3219
F3.33
tp3220
a(S'SBGI\n'
p3221
F3.33
tp3222
a(S'THRM\n'
p3223
F3.34
tp3224
a(S'FSBK\n'
p3225
F3.34
tp3226
a(S'ARII\n'
p3227
F3.34
tp3228
a(S'FTR\n'
p3229
F3.3400000000000007
tp3230
a(S'CPWR\n'
p3231
F3.3499999999999996
tp3232
a(S'MOCO\n'
p3233
F3.3499999999999996
tp3234
a(S'GHDX\n'
p3235
F3.3500000000000014
tp3236
a(S'LPLA\n'
p3237
F3.3599999999999994
tp3238
a(S'BAMM\n'
p3239
F3.36
tp3240
a(S'LLTC\n'
p3241
F3.360000000000003
tp3242
a(S'TTMI\n'
p3243
F3.369999999999999
tp3244
a(S'DRYS\n'
p3245
F3.38
tp3246
a(S'IMRS\n'
p3247
F3.38
tp3248
a(S'NCBC\n'
p3249
F3.38
tp3250
a(S'FREE\n'
p3251
F3.3899999999999997
tp3252
a(S'CLWR\n'
p3253
F3.39
tp3254
a(S'GILD\n'
p3255
F3.3999999999999986
tp3256
a(S'LKQ\n'
p3257
F3.4099999999999984
tp3258
a(S'FLXS\n'
p3259
F3.419999999999998
tp3260
a(S'CCBG\n'
p3261
F3.42
tp3262
a(S'AVNW\n'
p3263
F3.42
tp3264
a(S'ISIL\n'
p3265
F3.4299999999999997
tp3266
a(S'QCOM\n'
p3267
F3.4299999999999997
tp3268
a(S'HURC\n'
p3269
F3.4299999999999997
tp3270
a(S'NUTR\n'
p3271
F3.4399999999999995
tp3272
a(S'SNMX\n'
p3273
F3.44
tp3274
a(S'GNCMA\n'
p3275
F3.4400000000000013
tp3276
a(S'CRAI\n'
p3277
F3.4499999999999993
tp3278
a(S'ULTR\n'
p3279
F3.4499999999999997
tp3280
a(S'CLUB\n'
p3281
F3.4499999999999997
tp3282
a(S'INSM\n'
p3283
F3.45
tp3284
a(S'CNET\n'
p3285
F3.4599999999999995
tp3286
a(S'REFR\n'
p3287
F3.4599999999999995
tp3288
a(S'AINV\n'
p3289
F3.46
tp3290
a(S'RYAAY\n'
p3291
F3.469999999999999
tp3292
a(S'VISN\n'
p3293
F3.4699999999999998
tp3294
a(S'GNVC\n'
p3295
F3.4699999999999998
tp3296
a(S'TAXI\n'
p3297
F3.4799999999999995
tp3298
a(S'SYBT\n'
p3299
F3.4800000000000004
tp3300
a(S'LBTYA\n'
p3301
F3.480000000000004
tp3302
a(S'BANF\n'
p3303
F3.480000000000004
tp3304
a(S'MTSC\n'
p3305
F3.5
tp3306
a(S'VTWO\n'
p3307
F3.5
tp3308
a(S'NVGN\n'
p3309
F3.5
tp3310
a(S'CADX\n'
p3311
F3.51
tp3312
a(S'PSCH\n'
p3313
F3.5100000000000016
tp3314
a(S'VIVO\n'
p3315
F3.5199999999999996
tp3316
a(S'LLNW\n'
p3317
F3.5300000000000002
tp3318
a(S'PZZI\n'
p3319
F3.5300000000000002
tp3320
a(S'OPLK\n'
p3321
F3.530000000000001
tp3322
a(S'SLGN\n'
p3323
F3.530000000000001
tp3324
a(S'FSRV\n'
p3325
F3.530000000000001
tp3326
a(S'ZOOM\n'
p3327
F3.54
tp3328
a(S'PSEM\n'
p3329
F3.54
tp3330
a(S'RRST\n'
p3331
F3.5400000000000005
tp3332
a(S'GSIT\n'
p3333
F3.540000000000001
tp3334
a(S'PLXS\n'
p3335
F3.5400000000000027
tp3336
a(S'VRA\n'
p3337
F3.549999999999997
tp3338
a(S'HLIT\n'
p3339
F3.55
tp3340
a(S'FTNT\n'
p3341
F3.5599999999999987
tp3342
a(S'CLFD\n'
p3343
F3.5600000000000005
tp3344
a(S'MNOV\n'
p3345
F3.5699999999999994
tp3346
a(S'VTWV\n'
p3347
F3.5700000000000003
tp3348
a(S'CVGW\n'
p3349
F3.59
tp3350
a(S'ACHN\n'
p3351
F3.6000000000000005
tp3352
a(S'MSG\n'
p3353
F3.6099999999999994
tp3354
a(S'EGOV\n'
p3355
F3.610000000000001
tp3356
a(S'GCOM\n'
p3357
F3.619999999999999
tp3358
a(S'SAIA\n'
p3359
F3.620000000000001
tp3360
a(S'AERL\n'
p3361
F3.620000000000001
tp3362
a(S'QQQC\n'
p3363
F3.629999999999999
tp3364
a(S'FFEX\n'
p3365
F3.63
tp3366
a(S'VRTX\n'
p3367
F3.6300000000000026
tp3368
a(S'CERP\n'
p3369
F3.6399999999999997
tp3370
a(S'CBOU\n'
p3371
F3.6499999999999986
tp3372
a(S'MHGC\n'
p3373
F3.66
tp3374
a(S'UVSP\n'
p3375
F3.66
tp3376
a(S'BRKR\n'
p3377
F3.67
tp3378
a(S'CRME\n'
p3379
F3.67
tp3380
a(S'FFBH\n'
p3381
F3.6799999999999997
tp3382
a(S'SSYS\n'
p3383
F3.6800000000000033
tp3384
a(S'EXLP\n'
p3385
F3.710000000000001
tp3386
a(S'LKFN\n'
p3387
F3.7300000000000004
tp3388
a(S'ASBC\n'
p3389
F3.74
tp3390
a(S'KUTV\n'
p3391
F3.74
tp3392
a(S'NFEC\n'
p3393
F3.74
tp3394
a(S'QUIK\n'
p3395
F3.7499999999999996
tp3396
a(S'SGOC\n'
p3397
F3.75
tp3398
a(S'STEL\n'
p3399
F3.76
tp3400
a(S'PSUN\n'
p3401
F3.76
tp3402
a(S'DTLK\n'
p3403
F3.76
tp3404
a(S'SKYW\n'
p3405
F3.7799999999999994
tp3406
a(S'MFRI\n'
p3407
F3.7799999999999994
tp3408
a(S'LOJN\n'
p3409
F3.78
tp3410
a(S'AMCN\n'
p3411
F3.7800000000000002
tp3412
a(S'TAYC\n'
p3413
F3.789999999999999
tp3414
a(S'FMCN\n'
p3415
F3.789999999999999
tp3416
a(S'TOWN\n'
p3417
F3.8000000000000007
tp3418
a(S'PVTB\n'
p3419
F3.8099999999999987
tp3420
a(S'OXGN\n'
p3421
F3.8099999999999996
tp3422
a(S'ACWI\n'
p3423
F3.819999999999993
tp3424
a(S'NABI\n'
p3425
F3.8200000000000003
tp3426
a(S'IGTE\n'
p3427
F3.8200000000000003
tp3428
a(S'EFSC\n'
p3429
F3.83
tp3430
a(S'OSN\n'
p3431
F3.8300000000000005
tp3432
a(S'ATAI\n'
p3433
F3.8300000000000005
tp3434
a(S'FWRD\n'
p3435
F3.84
tp3436
a(S'JVA\n'
p3437
F3.84
tp3438
a(S'CYAN\n'
p3439
F3.8400000000000003
tp3440
a(S'VVTV\n'
p3441
F3.8500000000000005
tp3442
a(S'GERN\n'
p3443
F3.86
tp3444
a(S'IFEU\n'
p3445
F3.870000000000001
tp3446
a(S'XTXI\n'
p3447
F3.870000000000001
tp3448
a(S'ORBK\n'
p3449
F3.879999999999999
tp3450
a(S'WOOF\n'
p3451
F3.879999999999999
tp3452
a(S'GSM\n'
p3453
F3.889999999999999
tp3454
a(S'JDAS\n'
p3455
F3.8900000000000006
tp3456
a(S'IRBT\n'
p3457
F3.8900000000000006
tp3458
a(S'ALGN\n'
p3459
F3.900000000000002
tp3460
a(S'INTC\n'
p3461
F3.900000000000002
tp3462
a(S'SMCI\n'
p3463
F3.92
tp3464
a(S'ZGNX\n'
p3465
F3.94
tp3466
a(S'RSYS\n'
p3467
F3.9400000000000004
tp3468
a(S'FORM\n'
p3469
F3.9400000000000004
tp3470
a(S'PSDV\n'
p3471
F3.9499999999999993
tp3472
a(S'ADBE\n'
p3473
F3.9499999999999993
tp3474
a(S'CLWT\n'
p3475
F3.9600000000000004
tp3476
a(S'CBLI\n'
p3477
F3.9600000000000004
tp3478
a(S'INTU\n'
p3479
F3.960000000000001
tp3480
a(S'FMER\n'
p3481
F3.960000000000001
tp3482
a(S'MGRC\n'
p3483
F3.960000000000001
tp3484
a(S'AGNC\n'
p3485
F3.969999999999999
tp3486
a(S'INTG\n'
p3487
F3.9800000000000004
tp3488
a(S'PFBX\n'
p3489
F3.9800000000000004
tp3490
a(S'BWOWU\n'
p3491
F3.9800000000000004
tp3492
a(S'CAR\n'
p3493
F3.99
tp3494
a(S'CRBC\n'
p3495
F4.0
tp3496
a(S'SCSC\n'
p3497
F4.010000000000002
tp3498
a(S'ALLT\n'
p3499
F4.02
tp3500
a(S'VOCS\n'
p3501
F4.030000000000001
tp3502
a(S'HUBG\n'
p3503
F4.039999999999999
tp3504
a(S'PKBK\n'
p3505
F4.04
tp3506
a(S'GAIA\n'
p3507
F4.04
tp3508
a(S'PENN\n'
p3509
F4.049999999999997
tp3510
a(S'BIB\n'
p3511
F4.059999999999999
tp3512
a(S'IPCC\n'
p3513
F4.07
tp3514
a(S'ANSS\n'
p3515
F4.079999999999998
tp3516
a(S'FSBI\n'
p3517
F4.08
tp3518
a(S'FLIR\n'
p3519
F4.080000000000002
tp3520
a(S'PKOH\n'
p3521
F4.080000000000002
tp3522
a(S'SGMO\n'
p3523
F4.09
tp3524
a(S'LBTYK\n'
p3525
F4.090000000000003
tp3526
a(S'VOLC\n'
p3527
F4.100000000000001
tp3528
a(S'SLAB\n'
p3529
F4.109999999999999
tp3530
a(S'STAA\n'
p3531
F4.11
tp3532
a(S'FTEK\n'
p3533
F4.119999999999999
tp3534
a(S'ECHO\n'
p3535
F4.119999999999999
tp3536
a(S'MOVE\n'
p3537
F4.119999999999999
tp3538
a(S'MDCO\n'
p3539
F4.120000000000001
tp3540
a(S'CA\n'
p3541
F4.120000000000001
tp3542
a(S'TIBX\n'
p3543
F4.149999999999999
tp3544
a(S'AMCC\n'
p3545
F4.1499999999999995
tp3546
a(S'UCBI\n'
p3547
F4.16
tp3548
a(S'VLGEA\n'
p3549
F4.170000000000002
tp3550
a(S'CHKP\n'
p3551
F4.18
tp3552
a(S'PLUS\n'
p3553
F4.190000000000001
tp3554
a(S'ICAD\n'
p3555
F4.199999999999999
tp3556
a(S'JBHT\n'
p3557
F4.210000000000001
tp3558
a(S'ASRVP\n'
p3559
F4.219999999999999
tp3560
a(S'BFIN\n'
p3561
F4.220000000000001
tp3562
a(S'AZPN\n'
p3563
F4.230000000000002
tp3564
a(S'POWL\n'
p3565
F4.25
tp3566
a(S'JAXB\n'
p3567
F4.25
tp3568
a(S'ZOLT\n'
p3569
F4.260000000000001
tp3570
a(S'FORTY\n'
p3571
F4.260000000000002
tp3572
a(S'ICON\n'
p3573
F4.27
tp3574
a(S'NETC\n'
p3575
F4.27
tp3576
a(S'VRNT\n'
p3577
F4.280000000000001
tp3578
a(S'RJET\n'
p3579
F4.289999999999999
tp3580
a(S'CORE\n'
p3581
F4.289999999999999
tp3582
a(S'CCMP\n'
p3583
F4.300000000000001
tp3584
a(S'KTEC\n'
p3585
F4.309999999999999
tp3586
a(S'OMER\n'
p3587
F4.31
tp3588
a(S'HAST\n'
p3589
F4.3100000000000005
tp3590
a(S'EA\n'
p3591
F4.32
tp3592
a(S'TYPE\n'
p3593
F4.32
tp3594
a(S'MDCI\n'
p3595
F4.32
tp3596
a(S'LOPE\n'
p3597
F4.32
tp3598
a(S'OTEX\n'
p3599
F4.329999999999998
tp3600
a(S'WIBC\n'
p3601
F4.33
tp3602
a(S'SPRT\n'
p3603
F4.33
tp3604
a(S'ONTY\n'
p3605
F4.33
tp3606
a(S'MKSI\n'
p3607
F4.34
tp3608
a(S'KFRC\n'
p3609
F4.340000000000002
tp3610
a(S'INFN\n'
p3611
F4.36
tp3612
a(S'THOR\n'
p3613
F4.360000000000003
tp3614
a(S'SLMBP\n'
p3615
F4.369999999999997
tp3616
a(S'ININ\n'
p3617
F4.379999999999999
tp3618
a(S'ITIC\n'
p3619
F4.379999999999999
tp3620
a(S'KVHI\n'
p3621
F4.38
tp3622
a(S'DXCM\n'
p3623
F4.389999999999999
tp3624
a(S'RCON\n'
p3625
F4.4
tp3626
a(S'UEPS\n'
p3627
F4.41
tp3628
a(S'RP\n'
p3629
F4.43
tp3630
a(S'CSGS\n'
p3631
F4.439999999999998
tp3632
a(S'GAGA\n'
p3633
F4.44
tp3634
a(S'AMSG\n'
p3635
F4.469999999999999
tp3636
a(S'GASS\n'
p3637
F4.470000000000001
tp3638
a(S'TTEC\n'
p3639
F4.470000000000002
tp3640
a(S'JKHY\n'
p3641
F4.470000000000002
tp3642
a(S'MDLZ\n'
p3643
F4.48
tp3644
a(S'JAKK\n'
p3645
F4.48
tp3646
a(S'SPIR\n'
p3647
F4.49
tp3648
a(S'FNFG\n'
p3649
F4.5
tp3650
a(S'STSA\n'
p3651
F4.509999999999998
tp3652
a(S'NBTF\n'
p3653
F4.510000000000002
tp3654
a(S'OINK\n'
p3655
F4.5200000000000005
tp3656
a(S'NEWP\n'
p3657
F4.539999999999999
tp3658
a(S'HOVNP\n'
p3659
F4.550000000000001
tp3660
a(S'ADVS\n'
p3661
F4.560000000000002
tp3662
a(S'BABY\n'
p3663
F4.57
tp3664
a(S'BDGE\n'
p3665
F4.57
tp3666
a(S'SONC\n'
p3667
F4.58
tp3668
a(S'JDSU\n'
p3669
F4.59
tp3670
a(S'ELGX\n'
p3671
F4.590000000000001
tp3672
a(S'OPHC\n'
p3673
F4.6
tp3674
a(S'FBNC\n'
p3675
F4.639999999999999
tp3676
a(S'UMBF\n'
p3677
F4.649999999999999
tp3678
a(S'BRID\n'
p3679
F4.65
tp3680
a(S'PDII\n'
p3681
F4.65
tp3682
a(S'MRVL\n'
p3683
F4.66
tp3684
a(S'LCAV\n'
p3685
F4.66
tp3686
a(S'NTSP\n'
p3687
F4.66
tp3688
a(S'AGEN\n'
p3689
F4.66
tp3690
a(S'BGFV\n'
p3691
F4.66
tp3692
a(S'PRFZ\n'
p3693
F4.669999999999995
tp3694
a(S'ANEN\n'
p3695
F4.669999999999998
tp3696
a(S'HWAY\n'
p3697
F4.679999999999999
tp3698
a(S'PRTS\n'
p3699
F4.680000000000001
tp3700
a(S'JBSS\n'
p3701
F4.69
tp3702
a(S'TCCO\n'
p3703
F4.710000000000001
tp3704
a(S'GSOL\n'
p3705
F4.720000000000001
tp3706
a(S'RDIB\n'
p3707
F4.73
tp3708
a(S'SYKE\n'
p3709
F4.73
tp3710
a(S'CVV\n'
p3711
F4.739999999999999
tp3712
a(S'ICLR\n'
p3713
F4.75
tp3714
a(S'BELFA\n'
p3715
F4.759999999999998
tp3716
a(S'LOCM\n'
p3717
F4.76
tp3718
a(S'RITT\n'
p3719
F4.76
tp3720
a(S'VRSN\n'
p3721
F4.77
tp3722
a(S'NATH\n'
p3723
F4.780000000000001
tp3724
a(S'TSRA\n'
p3725
F4.780000000000001
tp3726
a(S'ACOR\n'
p3727
F4.789999999999999
tp3728
a(S'ATML\n'
p3729
F4.790000000000001
tp3730
a(S'VNDA\n'
p3731
F4.790000000000001
tp3732
a(S'KEQU\n'
p3733
F4.830000000000001
tp3734
a(S'PMTC\n'
p3735
F4.84
tp3736
a(S'MRCY\n'
p3737
F4.84
tp3738
a(S'DRWI\n'
p3739
F4.8500000000000005
tp3740
a(S'AMSF\n'
p3741
F4.850000000000001
tp3742
a(S'FEFN\n'
p3743
F4.850000000000001
tp3744
a(S'STLD\n'
p3745
F4.860000000000001
tp3746
a(S'ALKS\n'
p3747
F4.869999999999999
tp3748
a(S'SPPRO\n'
p3749
F4.870000000000001
tp3750
a(S'ADRA\n'
p3751
F4.870000000000001
tp3752
a(S'PETS\n'
p3753
F4.879999999999999
tp3754
a(S'ALCS\n'
p3755
F4.880000000000001
tp3756
a(S'ALXA\n'
p3757
F4.899999999999999
tp3758
a(S'COHU\n'
p3759
F4.919999999999998
tp3760
a(S'PWX\n'
p3761
F4.93
tp3762
a(S'ARUN\n'
p3763
F4.960000000000001
tp3764
a(S'RECV\n'
p3765
F4.99
tp3766
a(S'SATS\n'
p3767
F5.02
tp3768
a(S'DHRM\n'
p3769
F5.0200000000000005
tp3770
a(S'BIOD\n'
p3771
F5.040000000000001
tp3772
a(S'LEAP\n'
p3773
F5.040000000000001
tp3774
a(S'GAI\n'
p3775
F5.040000000000001
tp3776
a(S'EMIF\n'
p3777
F5.040000000000003
tp3778
a(S'MORN\n'
p3779
F5.050000000000004
tp3780
a(S'WTFC\n'
p3781
F5.050000000000004
tp3782
a(S'YONG\n'
p3783
F5.0600000000000005
tp3784
a(S'SBRA\n'
p3785
F5.079999999999998
tp3786
a(S'USCR\n'
p3787
F5.08
tp3788
a(S'CFFI\n'
p3789
F5.080000000000002
tp3790
a(S'DECK\n'
p3791
F5.0800000000000125
tp3792
a(S'JRJC\n'
p3793
F5.09
tp3794
a(S'MARPS\n'
p3795
F5.090000000000003
tp3796
a(S'VMED\n'
p3797
F5.109999999999999
tp3798
a(S'GNOM\n'
p3799
F5.109999999999999
tp3800
a(S'CYTR\n'
p3801
F5.11
tp3802
a(S'AHGP\n'
p3803
F5.119999999999997
tp3804
a(S'ORCL\n'
p3805
F5.119999999999997
tp3806
a(S'HOMB\n'
p3807
F5.120000000000001
tp3808
a(S'PMTI\n'
p3809
F5.129999999999999
tp3810
a(S'PAGG\n'
p3811
F5.140000000000001
tp3812
a(S'NDSN\n'
p3813
F5.140000000000001
tp3814
a(S'XNPT\n'
p3815
F5.15
tp3816
a(S'OFIX\n'
p3817
F5.159999999999997
tp3818
a(S'MGPI\n'
p3819
F5.16
tp3820
a(S'PRIM\n'
p3821
F5.17
tp3822
a(S'BBSI\n'
p3823
F5.17
tp3824
a(S'CPRT\n'
p3825
F5.190000000000001
tp3826
a(S'IIVI\n'
p3827
F5.199999999999999
tp3828
a(S'SBSA\n'
p3829
F5.199999999999999
tp3830
a(S'IFGL\n'
p3831
F5.199999999999999
tp3832
a(S'TECD\n'
p3833
F5.209999999999994
tp3834
a(S'UNTK\n'
p3835
F5.21
tp3836
a(S'TWGP\n'
p3837
F5.219999999999999
tp3838
a(S'ENMD\n'
p3839
F5.22
tp3840
a(S'ANAD\n'
p3841
F5.24
tp3842
a(S'CYOU\n'
p3843
F5.259999999999998
tp3844
a(S'USAP\n'
p3845
F5.280000000000001
tp3846
a(S'ALCO\n'
p3847
F5.280000000000001
tp3848
a(S'BELFB\n'
p3849
F5.289999999999999
tp3850
a(S'CTIC\n'
p3851
F5.3
tp3852
a(S'CRNT\n'
p3853
F5.3
tp3854
a(S'CDXS\n'
p3855
F5.3
tp3856
a(S'LBTYB\n'
p3857
F5.300000000000004
tp3858
a(S'ELON\n'
p3859
F5.31
tp3860
a(S'OGXI\n'
p3861
F5.3100000000000005
tp3862
a(S'ACXM\n'
p3863
F5.34
tp3864
a(S'AKRX\n'
p3865
F5.35
tp3866
a(S'SMBC\n'
p3867
F5.360000000000003
tp3868
a(S'CACB\n'
p3869
F5.37
tp3870
a(S'AMBT\n'
p3871
F5.37
tp3872
a(S'WACLY\n'
p3873
F5.3700000000000045
tp3874
a(S'IFSIA\n'
p3875
F5.379999999999999
tp3876
a(S'SRCE\n'
p3877
F5.390000000000001
tp3878
a(S'AXFN\n'
p3879
F5.390000000000001
tp3880
a(S'MGEE\n'
p3881
F5.399999999999999
tp3882
a(S'ODFL\n'
p3883
F5.399999999999999
tp3884
a(S'IPCM\n'
p3885
F5.409999999999997
tp3886
a(S'GMAN\n'
p3887
F5.419999999999998
tp3888
a(S'LOGM\n'
p3889
F5.440000000000005
tp3890
a(S'MLNX\n'
p3891
F5.460000000000001
tp3892
a(S'ASMI\n'
p3893
F5.469999999999999
tp3894
a(S'SMT\n'
p3895
F5.49
tp3896
a(S'CCCL\n'
p3897
F5.51
tp3898
a(S'XOMA\n'
p3899
F5.52
tp3900
a(S'VIAB\n'
p3901
F5.530000000000001
tp3902
a(S'NUAN\n'
p3903
F5.539999999999999
tp3904
a(S'TQQQ\n'
p3905
F5.549999999999997
tp3906
a(S'DAKT\n'
p3907
F5.5600000000000005
tp3908
a(S'FIRE\n'
p3909
F5.560000000000002
tp3910
a(S'AREX\n'
p3911
F5.57
tp3912
a(S'EGAN\n'
p3913
F5.57
tp3914
a(S'MPAA\n'
p3915
F5.57
tp3916
a(S'AFSI\n'
p3917
F5.57
tp3918
a(S'DIOD\n'
p3919
F5.579999999999998
tp3920
a(S'ASML\n'
p3921
F5.580000000000005
tp3922
a(S'UTEK\n'
p3923
F5.59
tp3924
a(S'DMRC\n'
p3925
F5.600000000000001
tp3926
a(S'ARWR\n'
p3927
F5.61
tp3928
a(S'SUPX\n'
p3929
F5.620000000000001
tp3930
a(S'EUFN\n'
p3931
F5.629999999999999
tp3932
a(S'KELYB\n'
p3933
F5.629999999999999
tp3934
a(S'SODA\n'
p3935
F5.629999999999999
tp3936
a(S'SHBI\n'
p3937
F5.63
tp3938
a(S'APEI\n'
p3939
F5.630000000000003
tp3940
a(S'ZIGO\n'
p3941
F5.639999999999999
tp3942
a(S'JASO\n'
p3943
F5.640000000000001
tp3944
a(S'HSNI\n'
p3945
F5.659999999999997
tp3946
a(S'PHIIK\n'
p3947
F5.68
tp3948
a(S'KELYA\n'
p3949
F5.6899999999999995
tp3950
a(S'COHR\n'
p3951
F5.700000000000003
tp3952
a(S'DHIL\n'
p3953
F5.700000000000003
tp3954
a(S'USAK\n'
p3955
F5.709999999999999
tp3956
a(S'NCMI\n'
p3957
F5.710000000000001
tp3958
a(S'ISLE\n'
p3959
F5.73
tp3960
a(S'PDCE\n'
p3961
F5.740000000000002
tp3962
a(S'GRIF\n'
p3963
F5.759999999999998
tp3964
a(S'ENZN\n'
p3965
F5.78
tp3966
a(S'CRMB\n'
p3967
F5.800000000000001
tp3968
a(S'SSRX\n'
p3969
F5.8100000000000005
tp3970
a(S'LFUS\n'
p3971
F5.810000000000002
tp3972
a(S'VRSK\n'
p3973
F5.810000000000002
tp3974
a(S'ROSE\n'
p3975
F5.829999999999998
tp3976
a(S'GLBS\n'
p3977
F5.859999999999999
tp3978
a(S'POPE\n'
p3979
F5.869999999999997
tp3980
a(S'ARMH\n'
p3981
F5.870000000000001
tp3982
a(S'MFLX\n'
p3983
F5.899999999999999
tp3984
a(S'SIVB\n'
p3985
F5.900000000000006
tp3986
a(S'BCPC\n'
p3987
F5.909999999999997
tp3988
a(S'NANO\n'
p3989
F5.910000000000002
tp3990
a(S'MNKD\n'
p3991
F5.93
tp3992
a(S'PLCE\n'
p3993
F5.939999999999998
tp3994
a(S'GKNT\n'
p3995
F5.960000000000001
tp3996
a(S'ANDE\n'
p3997
F5.960000000000001
tp3998
a(S'ACWX\n'
p3999
F5.969999999999999
tp4000
a(S'KEYN\n'
p4001
F5.970000000000001
tp4002
a(S'QGEN\n'
p4003
F5.970000000000001
tp4004
a(S'LIWA\n'
p4005
F5.98
tp4006
a(S'HIFS\n'
p4007
F5.980000000000004
tp4008
a(S'WCRX\n'
p4009
F5.989999999999998
tp4010
a(S'MEOH\n'
p4011
F5.989999999999998
tp4012
a(S'TORM\n'
p4013
F6.01
tp4014
a(S'RCII\n'
p4015
F6.02
tp4016
a(S'MSCC\n'
p4017
F6.030000000000001
tp4018
a(S'NTRI\n'
p4019
F6.039999999999999
tp4020
a(S'ARDNA\n'
p4021
F6.040000000000006
tp4022
a(S'ZEUS\n'
p4023
F6.080000000000002
tp4024
a(S'CHKE\n'
p4025
F6.119999999999999
tp4026
a(S'AXTI\n'
p4027
F6.140000000000001
tp4028
a(S'HCCI\n'
p4029
F6.149999999999999
tp4030
a(S'HCBK\n'
p4031
F6.169999999999999
tp4032
a(S'ARTW\n'
p4033
F6.180000000000001
tp4034
a(S'SOFO\n'
p4035
F6.2
tp4036
a(S'JJSF\n'
p4037
F6.210000000000001
tp4038
a(S'TSTC\n'
p4039
F6.220000000000001
tp4040
a(S'PEIX\n'
p4041
F6.220000000000001
tp4042
a(S'ADTN\n'
p4043
F6.220000000000002
tp4044
a(S'SORL\n'
p4045
F6.24
tp4046
a(S'SEIC\n'
p4047
F6.259999999999998
tp4048
a(S'CBPO\n'
p4049
F6.259999999999998
tp4050
a(S'LABL\n'
p4051
F6.289999999999999
tp4052
a(S'CRESY\n'
p4053
F6.300000000000001
tp4054
a(S'FDML\n'
p4055
F6.300000000000001
tp4056
a(S'TRMD\n'
p4057
F6.319999999999999
tp4058
a(S'SHOO\n'
p4059
F6.32
tp4060
a(S'LECO\n'
p4061
F6.329999999999998
tp4062
a(S'CPSI\n'
p4063
F6.349999999999994
tp4064
a(S'CONN\n'
p4065
F6.359999999999999
tp4066
a(S'CTCT\n'
p4067
F6.369999999999997
tp4068
a(S'AOSL\n'
p4069
F6.37
tp4070
a(S'VGIT\n'
p4071
F6.3899999999999935
tp4072
a(S'VRML\n'
p4073
F6.39
tp4074
a(S'MCOX\n'
p4075
F6.41
tp4076
a(S'BSPM\n'
p4077
F6.419999999999999
tp4078
a(S'MBLX\n'
p4079
F6.420000000000001
tp4080
a(S'SOXX\n'
p4081
F6.420000000000002
tp4082
a(S'SAFT\n'
p4083
F6.439999999999998
tp4084
a(S'CYCC\n'
p4085
F6.44
tp4086
a(S'VLCCF\n'
p4087
F6.510000000000002
tp4088
a(S'HSII\n'
p4089
F6.510000000000002
tp4090
a(S'TRAK\n'
p4091
F6.510000000000002
tp4092
a(S'PWER\n'
p4093
F6.529999999999999
tp4094
a(S'WPPGY\n'
p4095
F6.530000000000001
tp4096
a(S'LINC\n'
p4097
F6.55
tp4098
a(S'CWEI\n'
p4099
F6.550000000000011
tp4100
a(S'CTRX\n'
p4101
F6.599999999999998
tp4102
a(S'ALSK\n'
p4103
F6.6
tp4104
a(S'CBAK\n'
p4105
F6.6
tp4106
a(S'CDTI\n'
p4107
F6.6000000000000005
tp4108
a(S'MNRO\n'
p4109
F6.600000000000001
tp4110
a(S'NRCI\n'
p4111
F6.609999999999999
tp4112
a(S'ISRL\n'
p4113
F6.609999999999999
tp4114
a(S'NVTL\n'
p4115
F6.61
tp4116
a(S'DCTH\n'
p4117
F6.61
tp4118
a(S'DIAL\n'
p4119
F6.620000000000001
tp4120
a(S'NKTR\n'
p4121
F6.640000000000001
tp4122
a(S'EMFN\n'
p4123
F6.649999999999999
tp4124
a(S'AMOV\n'
p4125
F6.66
tp4126
a(S'ICLN\n'
p4127
F6.690000000000001
tp4128
a(S'CRDN\n'
p4129
F6.690000000000005
tp4130
a(S'TROW\n'
p4131
F6.690000000000005
tp4132
a(S'DEER\n'
p4133
F6.700000000000001
tp4134
a(S'XXIA\n'
p4135
F6.709999999999999
tp4136
a(S'ICGE\n'
p4137
F6.71
tp4138
a(S'CVTI\n'
p4139
F6.719999999999999
tp4140
a(S'LUFK\n'
p4141
F6.719999999999999
tp4142
a(S'MMYT\n'
p4143
F6.720000000000002
tp4144
a(S'GRID\n'
p4145
F6.73
tp4146
a(S'ALOG\n'
p4147
F6.75
tp4148
a(S'EPAX\n'
p4149
F6.759999999999999
tp4150
a(S'POWI\n'
p4151
F6.769999999999996
tp4152
a(S'ONXX\n'
p4153
F6.780000000000001
tp4154
a(S'NASB\n'
p4155
F6.789999999999999
tp4156
a(S'NATR\n'
p4157
F6.800000000000001
tp4158
a(S'BPHX\n'
p4159
F6.83
tp4160
a(S'BSQR\n'
p4161
F6.83
tp4162
a(S'DJCO\n'
p4163
F6.849999999999994
tp4164
a(S'BRLI\n'
p4165
F6.850000000000001
tp4166
a(S'PTRY\n'
p4167
F6.869999999999999
tp4168
a(S'DWSN\n'
p4169
F6.890000000000001
tp4170
a(S'COGO\n'
p4171
F6.910000000000001
tp4172
a(S'CYMI\n'
p4173
F6.919999999999995
tp4174
a(S'IFAS\n'
p4175
F6.98
tp4176
a(S'VCIT\n'
p4177
F6.989999999999995
tp4178
a(S'RRGB\n'
p4179
F6.989999999999998
tp4180
a(S'ARIA\n'
p4181
F7.02
tp4182
a(S'QCLN\n'
p4183
F7.02
tp4184
a(S'PEGA\n'
p4185
F7.049999999999997
tp4186
a(S'IFSM\n'
p4187
F7.049999999999997
tp4188
a(S'CRZO\n'
p4189
F7.059999999999995
tp4190
a(S'CBEY\n'
p4191
F7.0600000000000005
tp4192
a(S'BPAX\n'
p4193
F7.08
tp4194
a(S'PHMD\n'
p4195
F7.15
tp4196
a(S'PATH\n'
p4197
F7.16
tp4198
a(S'LSTR\n'
p4199
F7.210000000000001
tp4200
a(S'EXPO\n'
p4201
F7.219999999999999
tp4202
a(S'IVAC\n'
p4203
F7.219999999999999
tp4204
a(S'LPHI\n'
p4205
F7.220000000000001
tp4206
a(S'VIA\n'
p4207
F7.230000000000004
tp4208
a(S'CTXS\n'
p4209
F7.239999999999995
tp4210
a(S'CGNX\n'
p4211
F7.2500000000000036
tp4212
a(S'RAVN\n'
p4213
F7.259999999999998
tp4214
a(S'OKSB\n'
p4215
F7.260000000000001
tp4216
a(S'BTUI\n'
p4217
F7.27
tp4218
a(S'HWKN\n'
p4219
F7.270000000000003
tp4220
a(S'NXTM\n'
p4221
F7.279999999999998
tp4222
a(S'PBIB\n'
p4223
F7.289999999999999
tp4224
a(S'KEYW\n'
p4225
F7.289999999999999
tp4226
a(S'XIDE\n'
p4227
F7.3
tp4228
a(S'CTAS\n'
p4229
F7.320000000000004
tp4230
a(S'POOL\n'
p4231
F7.349999999999998
tp4232
a(S'WEBM\n'
p4233
F7.350000000000001
tp4234
a(S'HSOL\n'
p4235
F7.359999999999999
tp4236
a(S'ABFS\n'
p4237
F7.359999999999999
tp4238
a(S'FOSL\n'
p4239
F7.359999999999999
tp4240
a(S'DXPE\n'
p4241
F7.360000000000003
tp4242
a(S'EDAC\n'
p4243
F7.380000000000001
tp4244
a(S'NNBR\n'
p4245
F7.42
tp4246
a(S'ATHN\n'
p4247
F7.43
tp4248
a(S'CEVA\n'
p4249
F7.460000000000001
tp4250
a(S'CWTR\n'
p4251
F7.4799999999999995
tp4252
a(S'ISNS\n'
p4253
F7.48
tp4254
a(S'NTCT\n'
p4255
F7.52
tp4256
a(S'RDCM\n'
p4257
F7.5200000000000005
tp4258
a(S'MIDD\n'
p4259
F7.52000000000001
tp4260
a(S'IOSP\n'
p4261
F7.559999999999999
tp4262
a(S'PSAU\n'
p4263
F7.560000000000002
tp4264
a(S'ADP\n'
p4265
F7.579999999999998
tp4266
a(S'HOLI\n'
p4267
F7.59
tp4268
a(S'EPHC\n'
p4269
F7.599999999999998
tp4270
a(S'BMRN\n'
p4271
F7.610000000000003
tp4272
a(S'CALM\n'
p4273
F7.629999999999999
tp4274
a(S'SPWR\n'
p4275
F7.629999999999999
tp4276
a(S'SHEN\n'
p4277
F7.669999999999998
tp4278
a(S'SWIR\n'
p4279
F7.67
tp4280
a(S'SPPI\n'
p4281
F7.670000000000001
tp4282
a(S'UFPI\n'
p4283
F7.689999999999998
tp4284
a(S'KTOS\n'
p4285
F7.7
tp4286
a(S'MELI\n'
p4287
F7.719999999999999
tp4288
a(S'NTES\n'
p4289
F7.719999999999999
tp4290
a(S'RNWK\n'
p4291
F7.779999999999999
tp4292
a(S'SKBI\n'
p4293
F7.789999999999999
tp4294
a(S'OREX\n'
p4295
F7.79
tp4296
a(S'TPCG\n'
p4297
F7.82
tp4298
a(S'VSEC\n'
p4299
F7.829999999999998
tp4300
a(S'LAWS\n'
p4301
F7.830000000000002
tp4302
a(S'CNYD\n'
p4303
F7.84
tp4304
a(S'CSGP\n'
p4305
F7.850000000000001
tp4306
a(S'IDXX\n'
p4307
F7.859999999999999
tp4308
a(S'ACGL\n'
p4309
F7.869999999999997
tp4310
a(S'MANT\n'
p4311
F7.890000000000001
tp4312
a(S'OZRK\n'
p4313
F7.899999999999999
tp4314
a(S'DCIX\n'
p4315
F7.8999999999999995
tp4316
a(S'EXPE\n'
p4317
F7.91
tp4318
a(S'UTIW\n'
p4319
F7.919999999999998
tp4320
a(S'AMGN\n'
p4321
F7.939999999999998
tp4322
a(S'WOOD\n'
p4323
F7.940000000000005
tp4324
a(S'TGA\n'
p4325
F7.949999999999999
tp4326
a(S'AMAP\n'
p4327
F7.970000000000001
tp4328
a(S'RECN\n'
p4329
F7.98
tp4330
a(S'NXPI\n'
p4331
F8.01
tp4332
a(S'AONE\n'
p4333
F8.020000000000001
tp4334
a(S'LLEN\n'
p4335
F8.07
tp4336
a(S'QTWW\n'
p4337
F8.07
tp4338
a(S'JOSB\n'
p4339
F8.089999999999996
tp4340
a(S'MAG\n'
p4341
F8.09
tp4342
a(S'ENTR\n'
p4343
F8.11
tp4344
a(S'KITD\n'
p4345
F8.11
tp4346
a(S'VICR\n'
p4347
F8.119999999999997
tp4348
a(S'USBI\n'
p4349
F8.14
tp4350
a(S'MLHR\n'
p4351
F8.150000000000002
tp4352
a(S'URBN\n'
p4353
F8.190000000000001
tp4354
a(S'CELG\n'
p4355
F8.209999999999994
tp4356
a(S'TRIT\n'
p4357
F8.29
tp4358
a(S'CMCO\n'
p4359
F8.320000000000002
tp4360
a(S'PRAA\n'
p4361
F8.329999999999998
tp4362
a(S'ACAT\n'
p4363
F8.34
tp4364
a(S'HIBB\n'
p4365
F8.36
tp4366
a(S'SIGM\n'
p4367
F8.37
tp4368
a(S'PSTL\n'
p4369
F8.389999999999999
tp4370
a(S'ETFC\n'
p4371
F8.399999999999999
tp4372
a(S'CENX\n'
p4373
F8.42
tp4374
a(S'QKLS\n'
p4375
F8.43
tp4376
a(S'ABMD\n'
p4377
F8.44
tp4378
a(S'SRPT\n'
p4379
F8.46
tp4380
a(S'VTNC\n'
p4381
F8.47
tp4382
a(S'TECUA\n'
p4383
F8.489999999999998
tp4384
a(S'PCYC\n'
p4385
F8.52
tp4386
a(S'ZION\n'
p4387
F8.559999999999999
tp4388
a(S'RDWR\n'
p4389
F8.560000000000002
tp4390
a(S'CVGI\n'
p4391
F8.600000000000001
tp4392
a(S'SYUT\n'
p4393
F8.600000000000001
tp4394
a(S'HTHT\n'
p4395
F8.61
tp4396
a(S'CVCO\n'
p4397
F8.629999999999995
tp4398
a(S'TECUB\n'
p4399
F8.629999999999999
tp4400
a(S'CHRW\n'
p4401
F8.63000000000001
tp4402
a(S'GPOR\n'
p4403
F8.649999999999999
tp4404
a(S'GURE\n'
p4405
F8.66
tp4406
a(S'INFA\n'
p4407
F8.660000000000004
tp4408
a(S'TQNT\n'
p4409
F8.7
tp4410
a(S'SEED\n'
p4411
F8.71
tp4412
a(S'EMMT\n'
p4413
F8.75
tp4414
a(S'SPMD\n'
p4415
F8.79
tp4416
a(S'CHDX\n'
p4417
F8.809999999999999
tp4418
a(S'VNQI\n'
p4419
F8.839999999999996
tp4420
a(S'BSTC\n'
p4421
F8.84
tp4422
a(S'IDSA\n'
p4423
F8.879999999999999
tp4424
a(S'AVID\n'
p4425
F8.88
tp4426
a(S'ICUI\n'
p4427
F8.89
tp4428
a(S'BONT\n'
p4429
F8.89
tp4430
a(S'TOPS\n'
p4431
F8.91
tp4432
a(S'BBBY\n'
p4433
F8.949999999999996
tp4434
a(S'OSTK\n'
p4435
F8.95
tp4436
a(S'SPLS\n'
p4437
F8.969999999999999
tp4438
a(S'RAIL\n'
p4439
F9.0
tp4440
a(S'DSTI\n'
p4441
F9.030000000000001
tp4442
a(S'SVNT\n'
p4443
F9.049999999999999
tp4444
a(S'TCBI\n'
p4445
F9.059999999999999
tp4446
a(S'IBKC\n'
p4447
F9.14
tp4448
a(S'CNIT\n'
p4449
F9.18
tp4450
a(S'ADRE\n'
p4451
F9.199999999999996
tp4452
a(S'SUSS\n'
p4453
F9.250000000000002
tp4454
a(S'AMWD\n'
p4455
F9.280000000000001
tp4456
a(S'NEOG\n'
p4457
F9.29
tp4458
a(S'CATM\n'
p4459
F9.29
tp4460
a(S'RUE\n'
p4461
F9.32
tp4462
a(S'BODY\n'
p4463
F9.33
tp4464
a(S'DISH\n'
p4465
F9.34
tp4466
a(S'LOGI\n'
p4467
F9.39
tp4468
a(S'SBNY\n'
p4469
F9.410000000000004
tp4470
a(S'SUNH\n'
p4471
F9.420000000000002
tp4472
a(S'NUCL\n'
p4473
F9.43
tp4474
a(S'KSWS\n'
p4475
F9.43
tp4476
a(S'PTNR\n'
p4477
F9.440000000000001
tp4478
a(S'AFOP\n'
p4479
F9.45
tp4480
a(S'MKTAY\n'
p4481
F9.479999999999997
tp4482
a(S'PZZA\n'
p4483
F9.48
tp4484
a(S'GRMN\n'
p4485
F9.490000000000002
tp4486
a(S'ALIM\n'
p4487
F9.5
tp4488
a(S'BOVA\n'
p4489
F9.5
tp4490
a(S'NAFC\n'
p4491
F9.529999999999998
tp4492
a(S'PRGS\n'
p4493
F9.54
tp4494
a(S'VPHM\n'
p4495
F9.55
tp4496
a(S'LAYN\n'
p4497
F9.559999999999999
tp4498
a(S'BICK\n'
p4499
F9.599999999999998
tp4500
a(S'MANH\n'
p4501
F9.659999999999997
tp4502
a(S'GGAL\n'
p4503
F9.66
tp4504
a(S'IBB\n'
p4505
F9.670000000000002
tp4506
a(S'JOBS\n'
p4507
F9.670000000000002
tp4508
a(S'PKT\n'
p4509
F9.68
tp4510
a(S'TWIN\n'
p4511
F9.779999999999998
tp4512
a(S'GEOS\n'
p4513
F9.799999999999997
tp4514
a(S'WABC\n'
p4515
F9.82
tp4516
a(S'CHDN\n'
p4517
F9.840000000000003
tp4518
a(S'OPNT\n'
p4519
F9.920000000000002
tp4520
a(S'FSGI\n'
p4521
F9.950000000000001
tp4522
a(S'FARM\n'
p4523
F9.969999999999999
tp4524
a(S'ACOM\n'
p4525
F10.04
tp4526
a(S'ACTG\n'
p4527
F10.129999999999999
tp4528
a(S'CHNR\n'
p4529
F10.16
tp4530
a(S'DGLY\n'
p4531
F10.16
tp4532
a(S'HAIN\n'
p4533
F10.169999999999998
tp4534
a(S'MIND\n'
p4535
F10.23
tp4536
a(S'LRCX\n'
p4537
F10.239999999999995
tp4538
a(S'FCHI\n'
p4539
F10.270000000000003
tp4540
a(S'SPSC\n'
p4541
F10.299999999999999
tp4542
a(S'MDAS\n'
p4543
F10.350000000000001
tp4544
a(S'STEM\n'
p4545
F10.379999999999999
tp4546
a(S'HMSY\n'
p4547
F10.39
tp4548
a(S'PATR\n'
p4549
F10.430000000000003
tp4550
a(S'MKTX\n'
p4551
F10.469999999999999
tp4552
a(S'MAKO\n'
p4553
F10.5
tp4554
a(S'CASY\n'
p4555
F10.520000000000003
tp4556
a(S'CAAS\n'
p4557
F10.54
tp4558
a(S'HSTM\n'
p4559
F10.549999999999999
tp4560
a(S'VALV\n'
p4561
F10.56
tp4562
a(S'MASI\n'
p4563
F10.61
tp4564
a(S'HOGS\n'
p4565
F10.620000000000001
tp4566
a(S'SCOK\n'
p4567
F10.63
tp4568
a(S'GMCR\n'
p4569
F10.71
tp4570
a(S'CPHD\n'
p4571
F10.729999999999997
tp4572
a(S'STEC\n'
p4573
F10.760000000000002
tp4574
a(S'CSIQ\n'
p4575
F10.81
tp4576
a(S'OCLR\n'
p4577
F10.82
tp4578
a(S'CIEN\n'
p4579
F10.83
tp4580
a(S'ARLP\n'
p4581
F10.840000000000003
tp4582
a(S'EMITF\n'
p4583
F10.879999999999999
tp4584
a(S'CISG\n'
p4585
F10.88
tp4586
a(S'PRMW\n'
p4587
F10.899999999999999
tp4588
a(S'ADSK\n'
p4589
F10.910000000000004
tp4590
a(S'NTLS\n'
p4591
F10.96
tp4592
a(S'INDY\n'
p4593
F10.96
tp4594
a(S'EDMC\n'
p4595
F11.04
tp4596
a(S'QNST\n'
p4597
F11.060000000000002
tp4598
a(S'FSTR\n'
p4599
F11.079999999999998
tp4600
a(S'NCIT\n'
p4601
F11.12
tp4602
a(S'LORL\n'
p4603
F11.129999999999995
tp4604
a(S'STRT\n'
p4605
F11.139999999999997
tp4606
a(S'BMTI\n'
p4607
F11.14
tp4608
a(S'KLAC\n'
p4609
F11.149999999999999
tp4610
a(S'SIGA\n'
p4611
F11.17
tp4612
a(S'PICO\n'
p4613
F11.170000000000002
tp4614
a(S'ESRX\n'
p4615
F11.190000000000005
tp4616
a(S'ASIA\n'
p4617
F11.280000000000001
tp4618
a(S'PWRD\n'
p4619
F11.32
tp4620
a(S'CSTR\n'
p4621
F11.380000000000003
tp4622
a(S'CRMT\n'
p4623
F11.419999999999998
tp4624
a(S'ESLT\n'
p4625
F11.420000000000002
tp4626
a(S'GIII\n'
p4627
F11.48
tp4628
a(S'ANAT\n'
p4629
F11.490000000000009
tp4630
a(S'SCSS\n'
p4631
F11.500000000000002
tp4632
a(S'HITT\n'
p4633
F11.509999999999998
tp4634
a(S'ADES\n'
p4635
F11.58
tp4636
a(S'BJRI\n'
p4637
F11.660000000000004
tp4638
a(S'SSRI\n'
p4639
F11.690000000000001
tp4640
a(S'LMNR\n'
p4641
F11.73
tp4642
a(S'CSUN\n'
p4643
F11.780000000000001
tp4644
a(S'AVHI\n'
p4645
F11.79
tp4646
a(S'MLAB\n'
p4647
F11.8
tp4648
a(S'CME\n'
p4649
F11.809999999999995
tp4650
a(S'ASCMA\n'
p4651
F11.810000000000002
tp4652
a(S'IPHS\n'
p4653
F11.829999999999998
tp4654
a(S'BIDU\n'
p4655
F11.840000000000003
tp4656
a(S'CTSH\n'
p4657
F11.879999999999995
tp4658
a(S'APPY\n'
p4659
F11.879999999999999
tp4660
a(S'UEIC\n'
p4661
F11.879999999999999
tp4662
a(S'SCHS\n'
p4663
F11.94
tp4664
a(S'SAFM\n'
p4665
F11.940000000000005
tp4666
a(S'OSIS\n'
p4667
F11.950000000000003
tp4668
a(S'MERU\n'
p4669
F11.990000000000002
tp4670
a(S'TSEM\n'
p4671
F12.0
tp4672
a(S'HURN\n'
p4673
F12.010000000000002
tp4674
a(S'ESGR\n'
p4675
F12.090000000000003
tp4676
a(S'CVLT\n'
p4677
F12.11
tp4678
a(S'PETM\n'
p4679
F12.149999999999999
tp4680
a(S'ZAZA\n'
p4681
F12.15
tp4682
a(S'AEGN\n'
p4683
F12.16
tp4684
a(S'CU\n'
p4685
F12.18
tp4686
a(S'PERY\n'
p4687
F12.24
tp4688
a(S'MIPS\n'
p4689
F12.279999999999998
tp4690
a(S'LULU\n'
p4691
F12.419999999999995
tp4692
a(S'ABCO\n'
p4693
F12.450000000000003
tp4694
a(S'SHIP\n'
p4695
F12.54
tp4696
a(S'HAS\n'
p4697
F12.599999999999998
tp4698
a(S'DWA\n'
p4699
F12.649999999999999
tp4700
a(S'RBCN\n'
p4701
F12.739999999999998
tp4702
a(S'COLM\n'
p4703
F12.740000000000002
tp4704
a(S'RMBS\n'
p4705
F12.82
tp4706
a(S'EXPD\n'
p4707
F12.86
tp4708
a(S'IACI\n'
p4709
F12.879999999999999
tp4710
a(S'RDEN\n'
p4711
F12.89
tp4712
a(S'SFLY\n'
p4713
F12.899999999999995
tp4714
a(S'WSFS\n'
p4715
F12.910000000000004
tp4716
a(S'PACB\n'
p4717
F12.940000000000001
tp4718
a(S'FARO\n'
p4719
F12.950000000000003
tp4720
a(S'COST\n'
p4721
F13.039999999999992
tp4722
a(S'CECO\n'
p4723
F13.07
tp4724
a(S'VCLT\n'
p4725
F13.079999999999998
tp4726
a(S'STMP\n'
p4727
F13.11
tp4728
a(S'LMCA\n'
p4729
F13.11999999999999
tp4730
a(S'LMCB\n'
p4731
F13.36
tp4732
a(S'CTCM\n'
p4733
F13.379999999999999
tp4734
a(S'NUVA\n'
p4735
F13.39
tp4736
a(S'TRLG\n'
p4737
F13.43
tp4738
a(S'ERIE\n'
p4739
F13.439999999999998
tp4740
a(S'ATRO\n'
p4741
F13.46
tp4742
a(S'AAXJ\n'
p4743
F13.530000000000001
tp4744
a(S'LAMR\n'
p4745
F13.530000000000001
tp4746
a(S'CALI\n'
p4747
F13.620000000000001
tp4748
a(S'HITK\n'
p4749
F13.650000000000002
tp4750
a(S'PKOL\n'
p4751
F13.709999999999997
tp4752
a(S'HAYN\n'
p4753
F13.770000000000003
tp4754
a(S'MTEX\n'
p4755
F13.799999999999999
tp4756
a(S'WPRT\n'
p4757
F13.810000000000002
tp4758
a(S'RVBD\n'
p4759
F13.869999999999997
tp4760
a(S'PWAV\n'
p4761
F13.92
tp4762
a(S'FAST\n'
p4763
F13.93
tp4764
a(S'FEIC\n'
p4765
F13.939999999999998
tp4766
a(S'SWKS\n'
p4767
F13.98
tp4768
a(S'SBUX\n'
p4769
F13.990000000000002
tp4770
a(S'FSYS\n'
p4771
F14.0
tp4772
a(S'CERN\n'
p4773
F14.030000000000001
tp4774
a(S'BRCM\n'
p4775
F14.030000000000001
tp4776
a(S'APOL\n'
p4777
F14.049999999999997
tp4778
a(S'FNSR\n'
p4779
F14.11
tp4780
a(S'RSTI\n'
p4781
F14.119999999999997
tp4782
a(S'ENOC\n'
p4783
F14.230000000000002
tp4784
a(S'AMZN\n'
p4785
F14.319999999999993
tp4786
a(S'HMIN\n'
p4787
F14.45
tp4788
a(S'SUBK\n'
p4789
F14.470000000000002
tp4790
a(S'HMPR\n'
p4791
F14.51
tp4792
a(S'CAVM\n'
p4793
F14.520000000000003
tp4794
a(S'WBMD\n'
p4795
F14.520000000000003
tp4796
a(S'CETV\n'
p4797
F14.55
tp4798
a(S'DLGC\n'
p4799
F14.55
tp4800
a(S'BMC\n'
p4801
F14.699999999999996
tp4802
a(S'MDVN\n'
p4803
F14.759999999999998
tp4804
a(S'MVIS\n'
p4805
F14.880000000000003
tp4806
a(S'LANC\n'
p4807
F14.939999999999998
tp4808
a(S'NTRS\n'
p4809
F15.11
tp4810
a(S'PURE\n'
p4811
F15.120000000000001
tp4812
a(S'DLTR\n'
p4813
F15.520000000000003
tp4814
a(S'SOHU\n'
p4815
F15.530000000000001
tp4816
a(S'AAWW\n'
p4817
F15.54
tp4818
a(S'FWLT\n'
p4819
F15.61
tp4820
a(S'NTWK\n'
p4821
F15.7
tp4822
a(S'RENT\n'
p4823
F15.72
tp4824
a(S'SMSI\n'
p4825
F15.740000000000002
tp4826
a(S'CTRN\n'
p4827
F15.750000000000002
tp4828
a(S'SIMO\n'
p4829
F16.0
tp4830
a(S'ULTI\n'
p4831
F16.010000000000005
tp4832
a(S'OVTI\n'
p4833
F16.07
tp4834
a(S'PAAS\n'
p4835
F16.139999999999997
tp4836
a(S'PLTM\n'
p4837
F16.209999999999997
tp4838
a(S'AMRS\n'
p4839
F16.25
tp4840
a(S'EGLE\n'
p4841
F16.4
tp4842
a(S'ROST\n'
p4843
F16.44
tp4844
a(S'FCNCA\n'
p4845
F16.49000000000001
tp4846
a(S'VPRT\n'
p4847
F16.509999999999998
tp4848
a(S'ASYS\n'
p4849
F16.509999999999998
tp4850
a(S'AKAM\n'
p4851
F16.57
tp4852
a(S'ASEI\n'
p4853
F16.67
tp4854
a(S'USLM\n'
p4855
F16.759999999999998
tp4856
a(S'RGLD\n'
p4857
F16.78000000000001
tp4858
a(S'RLOC\n'
p4859
F17.0
tp4860
a(S'IART\n'
p4861
F17.03
tp4862
a(S'CBST\n'
p4863
F17.08
tp4864
a(S'BWEN\n'
p4865
F17.099999999999998
tp4866
a(S'HTWR\n'
p4867
F17.28
tp4868
a(S'CHTR\n'
p4869
F17.369999999999997
tp4870
a(S'CSWC\n'
p4871
F17.590000000000003
tp4872
a(S'DGIT\n'
p4873
F17.61
tp4874
a(S'GTLS\n'
p4875
F17.630000000000003
tp4876
a(S'VGLT\n'
p4877
F17.67
tp4878
a(S'LIFE\n'
p4879
F17.67
tp4880
a(S'LHCG\n'
p4881
F18.03
tp4882
a(S'NILE\n'
p4883
F18.049999999999997
tp4884
a(S'PCAR\n'
p4885
F18.050000000000004
tp4886
a(S'BPOP\n'
p4887
F18.1
tp4888
a(S'JRCC\n'
p4889
F18.479999999999997
tp4890
a(S'EQIX\n'
p4891
F18.560000000000002
tp4892
a(S'JAZZ\n'
p4893
F18.800000000000004
tp4894
a(S'MSTR\n'
p4895
F18.89999999999999
tp4896
a(S'TELK\n'
p4897
F18.9
tp4898
a(S'MOTR\n'
p4899
F19.01
tp4900
a(S'CEDC\n'
p4901
F19.040000000000003
tp4902
a(S'ORRF\n'
p4903
F19.1
tp4904
a(S'CACC\n'
p4905
F19.17
tp4906
a(S'WRLD\n'
p4907
F19.29
tp4908
a(S'UTHR\n'
p4909
F19.310000000000002
tp4910
a(S'APAGF\n'
p4911
F19.440000000000005
tp4912
a(S'GEOY\n'
p4913
F19.490000000000002
tp4914
a(S'DMND\n'
p4915
F19.520000000000003
tp4916
a(S'ITRI\n'
p4917
F19.65
tp4918
a(S'CCIH\n'
p4919
F19.660000000000004
tp4920
a(S'GTIV\n'
p4921
F19.87
tp4922
a(S'TZOO\n'
p4923
F19.990000000000002
tp4924
a(S'MNST\n'
p4925
F20.09
tp4926
a(S'EBOD\n'
p4927
F20.1
tp4928
a(S'BIOF\n'
p4929
F20.199999999999996
tp4930
a(S'WFM\n'
p4931
F20.669999999999995
tp4932
a(S'ASPS\n'
p4933
F21.06
tp4934
a(S'DRIV\n'
p4935
F21.12
tp4936
a(S'CTRP\n'
p4937
F21.190000000000005
tp4938
a(S'TRGT\n'
p4939
F21.41
tp4940
a(S'HSFT\n'
p4941
F21.41
tp4942
a(S'GYRO\n'
p4943
F21.5
tp4944
a(S'SBLK\n'
p4945
F21.510000000000005
tp4946
a(S'NTAP\n'
p4947
F21.599999999999994
tp4948
a(S'ORLY\n'
p4949
F21.68
tp4950
a(S'WINA\n'
p4951
F21.980000000000004
tp4952
a(S'REGN\n'
p4953
F22.14
tp4954
a(S'NIHD\n'
p4955
F22.179999999999996
tp4956
a(S'BWLD\n'
p4957
F22.360000000000007
tp4958
a(S'CARV\n'
p4959
F22.46
tp4960
a(S'TSCO\n'
p4961
F22.560000000000002
tp4962
a(S'DTSI\n'
p4963
F22.84
tp4964
a(S'LQDT\n'
p4965
F22.95
tp4966
a(S'SINA\n'
p4967
F23.099999999999994
tp4968
a(S'AFAM\n'
p4969
F23.29
tp4970
a(S'BCOM\n'
p4971
F23.68
tp4972
a(S'VECO\n'
p4973
F23.76
tp4974
a(S'IGLD\n'
p4975
F23.869999999999997
tp4976
a(S'AIXG\n'
p4977
F23.870000000000005
tp4978
a(S'GOLD\n'
p4979
F24.0
tp4980
a(S'SOMX\n'
p4981
F24.08
tp4982
a(S'AMED\n'
p4983
F24.099999999999998
tp4984
a(S'INFY\n'
p4985
F24.509999999999998
tp4986
a(S'LEDS\n'
p4987
F24.68
tp4988
a(S'AMSC\n'
p4989
F25.22
tp4990
a(S'SCHN\n'
p4991
F25.419999999999995
tp4992
a(S'AIRM\n'
p4993
F25.770000000000003
tp4994
a(S'ITMN\n'
p4995
F26.479999999999997
tp4996
a(S'EVEP\n'
p4997
F26.71
tp4998
a(S'QCOR\n'
p4999
F26.759999999999998
tp5000
a(S'DNDN\n'
p5001
F27.61
tp5002
a(S'KONE\n'
p5003
F28.5
tp5004
a(S'GLNG\n'
p5005
F28.85
tp5006
a(S'VRTS\n'
p5007
F29.060000000000002
tp5008
a(S'FNBN\n'
p5009
F29.2
tp5010
a(S'APKT\n'
p5011
F29.680000000000003
tp5012
a(S'STXS\n'
p5013
F29.8
tp5014
a(S'ULTA\n'
p5015
F30.060000000000002
tp5016
a(S'ALXN\n'
p5017
F30.119999999999997
tp5018
a(S'CPLA\n'
p5019
F30.89
tp5020
a(S'FFIV\n'
p5021
F31.169999999999987
tp5022
a(S'SHPG\n'
p5023
F31.480000000000004
tp5024
a(S'PSMT\n'
p5025
F31.85000000000001
tp5026
a(S'NWLI\n'
p5027
F32.31999999999999
tp5028
a(S'PCLN\n'
p5029
F34.10999999999996
tp5030
a(S'PRGO\n'
p5031
F34.269999999999996
tp5032
a(S'CLNT\n'
p5033
F34.5
tp5034
a(S'OPEN\n'
p5035
F34.57999999999999
tp5036
a(S'ILMN\n'
p5037
F35.519999999999996
tp5038
a(S'GOOG\n'
p5039
F36.82999999999993
tp5040
a(S'SQQQ\n'
p5041
F37.519999999999996
tp5042
a(S'SHLD\n'
p5043
F40.56999999999999
tp5044
a(S'PNRA\n'
p5045
F40.90999999999998
tp5046
a(S'ROVI\n'
p5047
F41.08
tp5048
a(S'AMPL\n'
p5049
F41.6
tp5050
a(S'BIIB\n'
p5051
F43.36999999999999
tp5052
a(S'STRA\n'
p5053
F46.95
tp5054
a(S'RIMM\n'
p5055
F47.42
tp5056
a(S'HEAT\n'
p5057
F48.199999999999996
tp5058
a(S'ROSG\n'
p5059
F53.709999999999994
tp5060
a(S'THQI\n'
p5061
F56.49999999999999
tp5062
a(S'ATRI\n'
p5063
F58.81999999999999
tp5064
a(S'HBANP\n'
p5065
F60.3599999999999
tp5066
a(S'AAPL\n'
p5067
F70.69999999999999
tp5068
a(S'BIS\n'
p5069
F72.79999999999998
tp5070
a(S'FSLR\n'
p5071
F97.84
tp5072
a(S'NFLX\n'
p5073
F110.43999999999998
tp5074
a(S'SPEX\n'
p5075
F122.6
tp5076
a(S'ISRG\n'
p5077
F189.38
tp5078
a(S'YRCW\n'
p5079
F1026.99
tp5080
a.